

Microchip MPLAB XC8 Assembler V2.40 build 20220703182018 
                                                                                               Mon Sep 26 23:22:03 2022

Microchip MPLAB XC8 C Compiler v2.40 (Free license) build 20220703182018 Og1 
     1                           	processor	16F874
     2                           	pagewidth 120
     3                           	opt	flic
     4                           	psect	idataBANK0,global,class=CODE,delta=2,noexec
     5                           	psect	strings,global,class=STRING,delta=2,noexec
     6                           	psect	cinit,global,class=CODE,merge=1,delta=2
     7                           	psect	bssBANK0,global,class=BANK0,space=1,delta=1,noexec
     8                           	psect	dataBANK0,global,class=BANK0,space=1,delta=1,noexec
     9                           	psect	inittext,global,class=CODE,delta=2
    10                           	psect	clrtext,global,class=CODE,delta=2
    11                           	psect	cstackCOMMON,global,class=COMMON,space=1,delta=1,noexec
    12                           	psect	cstackBANK0,global,class=BANK0,space=1,delta=1,noexec
    13                           	psect	maintext,global,class=CODE,split=1,delta=2
    14                           	psect	text1,local,class=CODE,merge=1,delta=2,group=1
    15                           	psect	text2,local,class=CODE,merge=1,delta=2
    16                           	psect	text3,local,class=CODE,merge=1,delta=2
    17                           	psect	text4,local,class=CODE,merge=1,delta=2
    18                           	psect	text5,local,class=CODE,merge=1,delta=2,group=1
    19                           	psect	text6,local,class=CODE,merge=1,delta=2
    20                           	psect	text7,local,class=CODE,merge=1,delta=2
    21                           	psect	text8,local,class=CODE,merge=1,delta=2
    22                           	psect	text9,local,class=CODE,merge=1,delta=2
    23                           	psect	text10,local,class=CODE,merge=1,delta=2
    24                           	psect	text11,local,class=CODE,merge=1,delta=2
    25                           	psect	text12,local,class=CODE,merge=1,delta=2
    26                           	psect	intentry,global,class=CODE,delta=2
    27                           	psect	idloc,global,abs,ovrld,class=IDLOC,space=5,delta=2,noexec
    28                           	psect	config,global,abs,ovrld,class=CONFIG,space=4,delta=2,noexec
    29                           	psect	maintext_split_1,global,class=CODE,split=1,delta=2
    30                           	dabs	1,0x7E,2
    31     0000                     
    32                           ; Version 2.40
    33                           ; Generated 04/07/2022 GMT
    34                           ; 
    35                           ; Copyright © 2022, Microchip Technology Inc. and its subsidiaries ("Microchip")
    36                           ; All rights reserved.
    37                           ; 
    38                           ; This software is developed by Microchip Technology Inc. and its subsidiaries ("Microch
      +                          ip").
    39                           ; 
    40                           ; Redistribution and use in source and binary forms, with or without modification, are
    41                           ; permitted provided that the following conditions are met:
    42                           ; 
    43                           ;     1. Redistributions of source code must retain the above copyright notice, this lis
      +                          t of
    44                           ;        conditions and the following disclaimer.
    45                           ; 
    46                           ;     2. Redistributions in binary form must reproduce the above copyright notice, this 
      +                          list
    47                           ;        of conditions and the following disclaimer in the documentation and/or other
    48                           ;        materials provided with the distribution. Publication is not required when
    49                           ;        this file is used in an embedded application.
    50                           ; 
    51                           ;     3. Microchip's name may not be used to endorse or promote products derived from th
      +                          is
    52                           ;        software without specific prior written permission.
    53                           ; 
    54                           ; THIS SOFTWARE IS PROVIDED BY MICROCHIP "AS IS" AND ANY EXPRESS OR IMPLIED WARRANTIES,
    55                           ; INCLUDING, BUT NOT LIMITED TO, THE IMPLIED WARRANTIES OF MERCHANTABILITY AND FITNESS F
      +                          OR
    56                           ; PURPOSE ARE DISCLAIMED.  IN NO EVENT SHALL MICROCHIP BE LIABLE FOR ANY DIRECT, INDIREC
      +                          T,
    57                           ; INCIDENTAL, SPECIAL, EXEMPLARY, OR CONSEQUENTIAL DAMAGES (INCLUDING BUT NOT LIMITED TO
    58                           ; PROCUREMENT OF SUBSTITUTE GOODS OR SERVICES; LOSS OF USE, DATA OR PROFITS; OR BUSINESS
    59                           ; INTERRUPTION) HOWSOEVER CAUSED AND ON ANY THEORY OF LIABILITY, WHETHER IN CONTRACT, ST
      +                          RICT
    60                           ; LIABILITY, OR TORT (INCLUDING NEGLIGENCE OR OTHERWISE) ARISING IN ANY WAY OUT OF THE U
      +                          SE OF
    61                           ; THIS SOFTWARE, EVEN IF ADVISED OF THE POSSIBILITY OF SUCH DAMAGE.
    62                           ; 
    63                           ; 
    64                           ; Code-generator required, PIC16F874 Definitions
    65                           ; 
    66                           ; SFR Addresses
    67     0000                     	;# 
    68     0001                     	;# 
    69     0002                     	;# 
    70     0003                     	;# 
    71     0004                     	;# 
    72     0005                     	;# 
    73     0006                     	;# 
    74     0007                     	;# 
    75     0008                     	;# 
    76     0009                     	;# 
    77     000A                     	;# 
    78     000B                     	;# 
    79     000C                     	;# 
    80     000D                     	;# 
    81     000E                     	;# 
    82     000E                     	;# 
    83     000F                     	;# 
    84     0010                     	;# 
    85     0011                     	;# 
    86     0012                     	;# 
    87     0013                     	;# 
    88     0014                     	;# 
    89     0015                     	;# 
    90     0015                     	;# 
    91     0016                     	;# 
    92     0017                     	;# 
    93     0018                     	;# 
    94     0019                     	;# 
    95     001A                     	;# 
    96     001B                     	;# 
    97     001B                     	;# 
    98     001C                     	;# 
    99     001D                     	;# 
   100     001E                     	;# 
   101     001F                     	;# 
   102     0081                     	;# 
   103     0085                     	;# 
   104     0086                     	;# 
   105     0087                     	;# 
   106     0088                     	;# 
   107     0089                     	;# 
   108     008C                     	;# 
   109     008D                     	;# 
   110     008E                     	;# 
   111     0091                     	;# 
   112     0092                     	;# 
   113     0093                     	;# 
   114     0094                     	;# 
   115     0098                     	;# 
   116     0099                     	;# 
   117     009E                     	;# 
   118     009F                     	;# 
   119     010C                     	;# 
   120     010D                     	;# 
   121     010E                     	;# 
   122     010F                     	;# 
   123     018C                     	;# 
   124     018D                     	;# 
   125     0000                     	;# 
   126     0001                     	;# 
   127     0002                     	;# 
   128     0003                     	;# 
   129     0004                     	;# 
   130     0005                     	;# 
   131     0006                     	;# 
   132     0007                     	;# 
   133     0008                     	;# 
   134     0009                     	;# 
   135     000A                     	;# 
   136     000B                     	;# 
   137     000C                     	;# 
   138     000D                     	;# 
   139     000E                     	;# 
   140     000E                     	;# 
   141     000F                     	;# 
   142     0010                     	;# 
   143     0011                     	;# 
   144     0012                     	;# 
   145     0013                     	;# 
   146     0014                     	;# 
   147     0015                     	;# 
   148     0015                     	;# 
   149     0016                     	;# 
   150     0017                     	;# 
   151     0018                     	;# 
   152     0019                     	;# 
   153     001A                     	;# 
   154     001B                     	;# 
   155     001B                     	;# 
   156     001C                     	;# 
   157     001D                     	;# 
   158     001E                     	;# 
   159     001F                     	;# 
   160     0081                     	;# 
   161     0085                     	;# 
   162     0086                     	;# 
   163     0087                     	;# 
   164     0088                     	;# 
   165     0089                     	;# 
   166     008C                     	;# 
   167     008D                     	;# 
   168     008E                     	;# 
   169     0091                     	;# 
   170     0092                     	;# 
   171     0093                     	;# 
   172     0094                     	;# 
   173     0098                     	;# 
   174     0099                     	;# 
   175     009E                     	;# 
   176     009F                     	;# 
   177     010C                     	;# 
   178     010D                     	;# 
   179     010E                     	;# 
   180     010F                     	;# 
   181     018C                     	;# 
   182     018D                     	;# 
   183     0000                     	;# 
   184     0001                     	;# 
   185     0002                     	;# 
   186     0003                     	;# 
   187     0004                     	;# 
   188     0005                     	;# 
   189     0006                     	;# 
   190     0007                     	;# 
   191     0008                     	;# 
   192     0009                     	;# 
   193     000A                     	;# 
   194     000B                     	;# 
   195     000C                     	;# 
   196     000D                     	;# 
   197     000E                     	;# 
   198     000E                     	;# 
   199     000F                     	;# 
   200     0010                     	;# 
   201     0011                     	;# 
   202     0012                     	;# 
   203     0013                     	;# 
   204     0014                     	;# 
   205     0015                     	;# 
   206     0015                     	;# 
   207     0016                     	;# 
   208     0017                     	;# 
   209     0018                     	;# 
   210     0019                     	;# 
   211     001A                     	;# 
   212     001B                     	;# 
   213     001B                     	;# 
   214     001C                     	;# 
   215     001D                     	;# 
   216     001E                     	;# 
   217     001F                     	;# 
   218     0081                     	;# 
   219     0085                     	;# 
   220     0086                     	;# 
   221     0087                     	;# 
   222     0088                     	;# 
   223     0089                     	;# 
   224     008C                     	;# 
   225     008D                     	;# 
   226     008E                     	;# 
   227     0091                     	;# 
   228     0092                     	;# 
   229     0093                     	;# 
   230     0094                     	;# 
   231     0098                     	;# 
   232     0099                     	;# 
   233     009E                     	;# 
   234     009F                     	;# 
   235     010C                     	;# 
   236     010D                     	;# 
   237     010E                     	;# 
   238     010F                     	;# 
   239     018C                     	;# 
   240     018D                     	;# 
   241     0000                     	;# 
   242     0001                     	;# 
   243     0002                     	;# 
   244     0003                     	;# 
   245     0004                     	;# 
   246     0005                     	;# 
   247     0006                     	;# 
   248     0007                     	;# 
   249     0008                     	;# 
   250     0009                     	;# 
   251     000A                     	;# 
   252     000B                     	;# 
   253     000C                     	;# 
   254     000D                     	;# 
   255     000E                     	;# 
   256     000E                     	;# 
   257     000F                     	;# 
   258     0010                     	;# 
   259     0011                     	;# 
   260     0012                     	;# 
   261     0013                     	;# 
   262     0014                     	;# 
   263     0015                     	;# 
   264     0015                     	;# 
   265     0016                     	;# 
   266     0017                     	;# 
   267     0018                     	;# 
   268     0019                     	;# 
   269     001A                     	;# 
   270     001B                     	;# 
   271     001B                     	;# 
   272     001C                     	;# 
   273     001D                     	;# 
   274     001E                     	;# 
   275     001F                     	;# 
   276     0081                     	;# 
   277     0085                     	;# 
   278     0086                     	;# 
   279     0087                     	;# 
   280     0088                     	;# 
   281     0089                     	;# 
   282     008C                     	;# 
   283     008D                     	;# 
   284     008E                     	;# 
   285     0091                     	;# 
   286     0092                     	;# 
   287     0093                     	;# 
   288     0094                     	;# 
   289     0098                     	;# 
   290     0099                     	;# 
   291     009E                     	;# 
   292     009F                     	;# 
   293     010C                     	;# 
   294     010D                     	;# 
   295     010E                     	;# 
   296     010F                     	;# 
   297     018C                     	;# 
   298     018D                     	;# 
   299                           
   300                           	psect	idataBANK0
   301     093E                     __pidataBANK0:
   302                           
   303                           ;initializer for main@F940
   304     093E  3402               	retlw	2
   305     093F  349F               	retlw	159
   306     0940  3425               	retlw	37
   307     0941  340D               	retlw	13
   308     0942  3499               	retlw	153
   309     0943  3449               	retlw	73
   310     0944  3441               	retlw	65
   311     0945  341F               	retlw	31
   312     0946  3401               	retlw	1
   313     0947  3409               	retlw	9
   314                           
   315                           	psect	strings
   316     0800                     __pstrings:
   317     0800                     stringtab:
   318     0800                     __stringtab:
   319     0800                     stringcode:	
   320                           ;	String table - string pointers are 1 byte each
   321                           
   322     0800                     stringdir:
   323     0800  3008               	movlw	high stringdir
   324     0801  008A               	movwf	10
   325     0802  0804               	movf	4,w
   326     0803  0A84               	incf	4,f
   327     0804  0782               	addwf	2,f
   328     0805                     __stringbase:
   329     0805  3400               	retlw	0
   330     0806                     __end_of__stringtab:
   331     0806                     _A_KeyLookUptable_U8:
   332     0806  3430               	retlw	48
   333     0807  3431               	retlw	49
   334     0808  3432               	retlw	50
   335     0809  3433               	retlw	51
   336     080A  3434               	retlw	52
   337     080B  3435               	retlw	53
   338     080C  3436               	retlw	54
   339     080D  3437               	retlw	55
   340     080E  3438               	retlw	56
   341     080F  3439               	retlw	57
   342     0810  3441               	retlw	65
   343     0811  3442               	retlw	66
   344     0812  3443               	retlw	67
   345     0813  3444               	retlw	68
   346     0814  3445               	retlw	69
   347     0815  3446               	retlw	70
   348     0816                     __end_of_A_KeyLookUptable_U8:
   349     0019                     _TXREG	set	25
   350     001A                     _RCREG	set	26
   351     0018                     _RCSTA	set	24
   352     0009                     _PORTE	set	9
   353     0007                     _PORTC	set	7
   354     0005                     _PORTA	set	5
   355     0008                     _PORTD	set	8
   356     0006                     _PORTB	set	6
   357     0001                     _TMR0	set	1
   358     000B                     _INTCONbits	set	11
   359     0064                     _TXIF	set	100
   360     0065                     _RCIF	set	101
   361     0049                     _RE1	set	73
   362     0048                     _RE0	set	72
   363     0099                     _SPBRG	set	153
   364     0098                     _TXSTA	set	152
   365     0087                     _TRISC	set	135
   366     0085                     _TRISA	set	133
   367     0081                     _OPTION_REGbits	set	129
   368     0086                     _TRISBbits	set	134
   369     009F                     _ADCON1	set	159
   370     0089                     _TRISE	set	137
   371     0088                     _TRISD	set	136
   372     0086                     _TRISB	set	134
   373                           
   374                           	psect	cinit
   375     000F                     start_initialization:	
   376                           ; #config settings
   377                           
   378     000F                     __initialization:
   379                           
   380                           ; Initialize objects allocated to BANK0
   381     000F  1383               	bcf	3,7	;select IRP bank0
   382     0010  3078               	movlw	low (__pdataBANK0+10)
   383     0011  00FD               	movwf	btemp+-1
   384     0012  3009               	movlw	high __pidataBANK0
   385     0013  00FE               	movwf	btemp
   386     0014  303E               	movlw	low __pidataBANK0
   387     0015  00FF               	movwf	btemp+1
   388     0016  306E               	movlw	low __pdataBANK0
   389     0017  0084               	movwf	4
   390     0018  158A  214C  118A   	fcall	init_ram0
   391                           
   392                           ; Clear objects allocated to BANK0
   393     001B  3052               	movlw	low __pbssBANK0
   394     001C  0084               	movwf	4
   395     001D  306E               	movlw	low (__pbssBANK0+28)
   396     001E  158A  2136  118A   	fcall	clear_ram0
   397     0021                     end_of_initialization:	
   398                           ;End of C runtime variable initialization code
   399                           
   400     0021                     __end_of__initialization:
   401     0021  0183               	clrf	3
   402     0022  158A  2C6B         	ljmp	_main	;jump to C main() function
   403                           
   404                           	psect	bssBANK0
   405     0052                     __pbssBANK0:
   406     0052                     _A_ColsPins_U8:
   407     0052                     	ds	4
   408     0056                     _A_RowsPins_U8:
   409     0056                     	ds	4
   410     005A                     _set_cnt:
   411     005A                     	ds	4
   412     005E                     _cnt:
   413     005E                     	ds	4
   414     0062                     _seg_set:
   415     0062                     	ds	2
   416     0064                     _seg_blink_cnt:
   417     0064                     	ds	2
   418     0066                     _timer0_cnt:
   419     0066                     	ds	2
   420     0068                     _blink_seg_f:
   421     0068                     	ds	1
   422     0069                     _setval_mode:
   423     0069                     	ds	1
   424     006A                     _counter_mode2:
   425     006A                     	ds	1
   426     006B                     _counter_mode1:
   427     006B                     	ds	1
   428     006C                     _get_key_f:
   429     006C                     	ds	1
   430     006D                     _RegValue:
   431     006D                     	ds	1
   432                           
   433                           	psect	dataBANK0
   434     006E                     __pdataBANK0:
   435     006E                     main@F940:
   436     006E                     	ds	10
   437                           
   438                           	psect	inittext
   439     0948                     init_fetch0:	
   440                           ;	Called with low address in FSR and high address in W
   441                           
   442     0948  087E               	movf	btemp,w
   443     0949  008A               	movwf	10
   444     094A  087F               	movf	btemp+1,w
   445     094B  0082               	movwf	2
   446     094C                     init_ram0:	
   447                           ;Called with:
   448                           ;	high address of idata address in btemp 
   449                           ;	low address of idata address in btemp+1 
   450                           ;	low address of data in FSR
   451                           ;	high address + 1 of data in btemp-1
   452                           
   453     094C  158A  2148  158A   	fcall	init_fetch0
   454     094F  0080               	movwf	0
   455     0950  0A84               	incf	4,f
   456     0951  0804               	movf	4,w
   457     0952  067D               	xorwf	btemp+-1,w
   458     0953  1903               	btfsc	3,2
   459     0954  3400               	retlw	0
   460     0955  0AFF               	incf	btemp+1,f
   461     0956  1903               	btfsc	3,2
   462     0957  0AFE               	incf	btemp,f
   463     0958  294C               	goto	init_ram0
   464                           
   465                           	psect	clrtext
   466     0936                     clear_ram0:	
   467                           ;	Called with FSR containing the base address, and
   468                           ;	W with the last address+1
   469                           
   470     0936  0064               	clrwdt	;clear the watchdog before getting into this loop
   471     0937                     clrloop0:
   472     0937  0180               	clrf	0	;clear RAM location pointed to by FSR
   473     0938  0A84               	incf	4,f	;increment pointer
   474     0939  0604               	xorwf	4,w	;XOR with final address
   475     093A  1903               	btfsc	3,2	;have we reached the end yet?
   476     093B  3400               	retlw	0	;all done for this memory range, return
   477     093C  0604               	xorwf	4,w	;XOR again to restore value
   478     093D  2937               	goto	clrloop0	;do the next byte
   479                           
   480                           	psect	cstackCOMMON
   481     0000                     __pcstackCOMMON:
   482     0000                     ??_UART_Init:
   483     0000                     ??_UART_TxChar:	
   484                           ; 1 bytes @ 0x0
   485                           
   486     0000                     ??_DELAY_ms1:	
   487                           ; 1 bytes @ 0x0
   488                           
   489                           
   490                           	psect	cstackBANK0
   491     0020                     __pcstackBANK0:	
   492                           ; 1 bytes @ 0x0
   493                           
   494     0020                     ?_KEYPAD_GetKey:
   495     0020                     ?_UART_TxChar:	
   496                           ; 1 bytes @ 0x0
   497                           
   498     0020                     ?_myIsr:	
   499                           ; 1 bytes @ 0x0
   500                           
   501     0020                     ??_myIsr:	
   502                           ; 1 bytes @ 0x0
   503                           
   504     0020                     ?_GPIO_PinRead:	
   505                           ; 1 bytes @ 0x0
   506                           
   507     0020                     ?_main:	
   508                           ; 1 bytes @ 0x0
   509                           
   510                           
   511                           ; 2 bytes @ 0x0
   512     0020                     	ds	2
   513     0022                     ?_GPIO_PinWrite:
   514     0022                     ?_DELAY_ms1:	
   515                           ; 1 bytes @ 0x2
   516                           
   517     0022                     ?_GPIO_PinDirection:	
   518                           ; 1 bytes @ 0x2
   519                           
   520     0022                     ??_GPIO_PinRead:	
   521                           ; 1 bytes @ 0x2
   522                           
   523     0022                     ?___lldiv:	
   524                           ; 1 bytes @ 0x2
   525                           
   526     0022                     ?___llmod:	
   527                           ; 4 bytes @ 0x2
   528                           
   529     0022                     GPIO_PinDirection@var_pinDirn_u8:	
   530                           ; 4 bytes @ 0x2
   531                           
   532     0022                     GPIO_PinWrite@var_pinValue_u8:	
   533                           ; 1 bytes @ 0x2
   534                           
   535     0022                     UART_TxChar@v_uartData_u8:	
   536                           ; 1 bytes @ 0x2
   537                           
   538     0022                     DELAY_ms1@ms_Count:	
   539                           ; 1 bytes @ 0x2
   540                           
   541     0022                     ___lldiv@divisor:	
   542                           ; 2 bytes @ 0x2
   543                           
   544     0022                     ___llmod@divisor:	
   545                           ; 4 bytes @ 0x2
   546                           
   547                           
   548                           ; 4 bytes @ 0x2
   549     0022                     	ds	1
   550     0023                     ??_GPIO_PinWrite:
   551     0023                     ??_GPIO_PinDirection:	
   552                           ; 1 bytes @ 0x3
   553                           
   554                           
   555                           ; 1 bytes @ 0x3
   556     0023                     	ds	1
   557     0024                     GPIO_PinRead@var_portNumber_u8:
   558     0024                     DELAY_ms1@i:	
   559                           ; 1 bytes @ 0x4
   560                           
   561                           
   562                           ; 2 bytes @ 0x4
   563     0024                     	ds	1
   564     0025                     GPIO_PinDirection@var_portNumber_u8:
   565     0025                     GPIO_PinWrite@var_portNumber_u8:	
   566                           ; 1 bytes @ 0x5
   567                           
   568     0025                     GPIO_PinRead@returnStatus:	
   569                           ; 1 bytes @ 0x5
   570                           
   571                           
   572                           ; 1 bytes @ 0x5
   573     0025                     	ds	1
   574     0026                     GPIO_PinDirection@enm_pinNumber:
   575     0026                     GPIO_PinWrite@enm_pinNumber:	
   576                           ; 1 bytes @ 0x6
   577                           
   578     0026                     GPIO_PinRead@enm_pinNumber:	
   579                           ; 1 bytes @ 0x6
   580                           
   581     0026                     DELAY_ms1@j:	
   582                           ; 1 bytes @ 0x6
   583                           
   584     0026                     ___lldiv@dividend:	
   585                           ; 2 bytes @ 0x6
   586                           
   587     0026                     ___llmod@dividend:	
   588                           ; 4 bytes @ 0x6
   589                           
   590                           
   591                           ; 4 bytes @ 0x6
   592     0026                     	ds	1
   593     0027                     ?_KEYPAD_Init:
   594     0027                     ??_KEYPAD_GetKey:	
   595                           ; 1 bytes @ 0x7
   596                           
   597     0027                     KEYPAD_Init@row_1:	
   598                           ; 1 bytes @ 0x7
   599                           
   600                           
   601                           ; 1 bytes @ 0x7
   602     0027                     	ds	1
   603     0028                     KEYPAD_Init@row_2:
   604                           
   605                           ; 1 bytes @ 0x8
   606     0028                     	ds	1
   607     0029                     KEYPAD_Init@row_3:
   608     0029                     KEYPAD_GetKey@v_KeyPressed_u8:	
   609                           ; 1 bytes @ 0x9
   610                           
   611                           
   612                           ; 1 bytes @ 0x9
   613     0029                     	ds	1
   614     002A                     ??___lldiv:
   615     002A                     ??___llmod:	
   616                           ; 1 bytes @ 0xA
   617                           
   618     002A                     KEYPAD_Init@col_0:	
   619                           ; 1 bytes @ 0xA
   620                           
   621     002A                     KEYPAD_GetKey@j:	
   622                           ; 1 bytes @ 0xA
   623                           
   624                           
   625                           ; 1 bytes @ 0xA
   626     002A                     	ds	1
   627     002B                     KEYPAD_Init@col_1:
   628     002B                     KEYPAD_GetKey@i:	
   629                           ; 1 bytes @ 0xB
   630                           
   631     002B                     ___llmod@counter:	
   632                           ; 1 bytes @ 0xB
   633                           
   634     002B                     ___lldiv@quotient:	
   635                           ; 1 bytes @ 0xB
   636                           
   637                           
   638                           ; 4 bytes @ 0xB
   639     002B                     	ds	1
   640     002C                     KEYPAD_Init@col_2:
   641                           
   642                           ; 1 bytes @ 0xC
   643     002C                     	ds	1
   644     002D                     KEYPAD_Init@col_3:
   645                           
   646                           ; 1 bytes @ 0xD
   647     002D                     	ds	1
   648     002E                     ??_KEYPAD_Init:
   649                           
   650                           ; 1 bytes @ 0xE
   651     002E                     	ds	1
   652     002F                     KEYPAD_Init@row_0:
   653     002F                     ___lldiv@counter:	
   654                           ; 1 bytes @ 0xF
   655                           
   656                           
   657                           ; 1 bytes @ 0xF
   658     002F                     	ds	1
   659     0030                     ?_UART_SetBaudRate:
   660     0030                     KEYPAD_Init@i:	
   661                           ; 1 bytes @ 0x10
   662                           
   663     0030                     UART_SetBaudRate@v_baudRate_u32:	
   664                           ; 1 bytes @ 0x10
   665                           
   666                           
   667                           ; 4 bytes @ 0x10
   668     0030                     	ds	4
   669     0034                     ??_UART_SetBaudRate:
   670                           
   671                           ; 1 bytes @ 0x14
   672     0034                     	ds	4
   673     0038                     UART_SetBaudRate@RegValue:
   674                           
   675                           ; 1 bytes @ 0x18
   676     0038                     	ds	1
   677     0039                     ?_UART_Init:
   678     0039                     UART_Init@v_baudRate_u32:	
   679                           ; 1 bytes @ 0x19
   680                           
   681                           
   682                           ; 4 bytes @ 0x19
   683     0039                     	ds	4
   684     003D                     ??_main:
   685                           
   686                           ; 1 bytes @ 0x1D
   687     003D                     	ds	4
   688     0041                     main@seg_code:
   689                           
   690                           ; 10 bytes @ 0x21
   691     0041                     	ds	10
   692     004B                     main@temp:
   693                           
   694                           ; 2 bytes @ 0x2B
   695     004B                     	ds	2
   696     004D                     main@key:
   697                           
   698                           ; 1 bytes @ 0x2D
   699     004D                     	ds	1
   700     004E                     main@num:
   701                           
   702                           ; 4 bytes @ 0x2E
   703     004E                     	ds	4
   704                           
   705                           	psect	maintext
   706     0C6B                     __pmaintext:	
   707 ;;
   708 ;;Main: autosize = 0, tempsize = 4, incstack = 0, save=0
   709 ;;
   710 ;; *************** function _main *****************
   711 ;; Defined at:
   712 ;;		line 118 in file "main.c"
   713 ;; Parameters:    Size  Location     Type
   714 ;;		None
   715 ;; Auto vars:     Size  Location     Type
   716 ;;  seg_code       10   33[BANK0 ] unsigned char [10]
   717 ;;  num             4   46[BANK0 ] unsigned long 
   718 ;;  temp            2   43[BANK0 ] int 
   719 ;;  j               2    0        int 
   720 ;;  i               2    0        int 
   721 ;;  key             1   45[BANK0 ] unsigned char 
   722 ;;  status          1    0        unsigned char 
   723 ;; Return value:  Size  Location     Type
   724 ;;                  2   68[None  ] int 
   725 ;; Registers used:
   726 ;;		wreg, fsr0l, fsr0h, status,2, status,0, pclath, cstack
   727 ;; Tracked objects:
   728 ;;		On entry : B00/0
   729 ;;		On exit  : 0/0
   730 ;;		Unchanged: 0/0
   731 ;; Data sizes:     COMMON   BANK0   BANK1
   732 ;;      Params:         0       0       0
   733 ;;      Locals:         0      17       0
   734 ;;      Temps:          0       4       0
   735 ;;      Totals:         0      21       0
   736 ;;Total ram usage:       21 bytes
   737 ;; Hardware stack levels required when called: 4
   738 ;; This function calls:
   739 ;;		_DELAY_ms1
   740 ;;		_GPIO_PinWrite
   741 ;;		_KEYPAD_GetKey
   742 ;;		_KEYPAD_Init
   743 ;;		_UART_Init
   744 ;;		_UART_TxChar
   745 ;;		___lldiv
   746 ;;		___llmod
   747 ;; This function is called by:
   748 ;;		Startup code after reset
   749 ;; This function uses a non-reentrant model
   750 ;;
   751                           
   752     0C6B                     _main:	
   753                           ;psect for function _main
   754                           
   755     0C6B                     l2291:	
   756                           ;incstack = 0
   757                           ; Regs used in _main: [wreg-fsr0h+status,2+status,0+pclath+cstack]
   758                           
   759                           
   760                           ;main.c: 120:      char seg_code[] = {0x02,0x9f,0x25,0x0d,0x99,0x49,0x41,0x1f,0x01,0x09}
      +                          ;
   761     0C6B  3041               	movlw	main@seg_code& (0+255)
   762     0C6C  0084               	movwf	4
   763     0C6D  306E               	movlw	low main@F940
   764     0C6E  1283               	bcf	3,5	;RP0=0, select bank0
   765     0C6F  1303               	bcf	3,6	;RP1=0, select bank0
   766     0C70  00BD               	movwf	??_main
   767     0C71  0804               	movf	4,w
   768     0C72  00BE               	movwf	??_main+1
   769     0C73  300A               	movlw	10
   770     0C74  00BF               	movwf	??_main+2
   771     0C75                     u2640:
   772     0C75  083D               	movf	??_main,w
   773     0C76  0084               	movwf	4
   774     0C77  1383               	bcf	3,7	;select IRP bank0
   775     0C78  0800               	movf	0,w
   776     0C79  00C0               	movwf	??_main+3
   777     0C7A  0ABD               	incf	??_main,f
   778     0C7B  083E               	movf	??_main+1,w
   779     0C7C  0084               	movwf	4
   780     0C7D  0840               	movf	??_main+3,w
   781     0C7E  0080               	movwf	0
   782     0C7F  0ABE               	incf	??_main+1,f
   783     0C80  0BBF               	decfsz	??_main+2,f
   784     0C81  2C75               	goto	u2640
   785     0C82                     l2293:
   786     0C82                     l2295:
   787                           
   788                           ;main.c: 128:     TRISB = 0x00;
   789     0C82  1683               	bsf	3,5	;RP0=1, select bank1
   790     0C83  1303               	bcf	3,6	;RP1=0, select bank1
   791     0C84  0186               	clrf	6	;volatile
   792     0C85                     l2297:
   793                           
   794                           ;main.c: 129:     TRISD = 0x00;
   795     0C85  0188               	clrf	8	;volatile
   796     0C86                     l2299:
   797                           
   798                           ;main.c: 130:     TRISE = 0x00;
   799     0C86  0189               	clrf	9	;volatile
   800     0C87                     l2301:
   801                           
   802                           ;main.c: 131:     ADCON1 = 0x06;
   803     0C87  3006               	movlw	6
   804     0C88  009F               	movwf	31	;volatile
   805     0C89                     l2303:
   806                           
   807                           ;main.c: 133:     RE0=0;
   808     0C89  1283               	bcf	3,5	;RP0=0, select bank0
   809     0C8A  1303               	bcf	3,6	;RP1=0, select bank0
   810     0C8B  1009               	bcf	9,0	;volatile
   811     0C8C                     l2305:
   812                           
   813                           ;main.c: 134:     RE1=0;
   814     0C8C  1089               	bcf	9,1	;volatile
   815     0C8D                     l2307:
   816                           
   817                           ;main.c: 138:     KEYPAD_Init(PC_0,PC_1,PC_2,PC_3,PA_0,PA_1,PA_2,PA_3);
   818     0C8D  3011               	movlw	17
   819     0C8E  00A7               	movwf	KEYPAD_Init@row_1
   820     0C8F  3012               	movlw	18
   821     0C90  00A8               	movwf	KEYPAD_Init@row_2
   822     0C91  3013               	movlw	19
   823     0C92  00A9               	movwf	KEYPAD_Init@row_3
   824     0C93  01AA               	clrf	KEYPAD_Init@col_0
   825     0C94  01AB               	clrf	KEYPAD_Init@col_1
   826     0C95  0AAB               	incf	KEYPAD_Init@col_1,f
   827     0C96  3002               	movlw	2
   828     0C97  00AC               	movwf	KEYPAD_Init@col_2
   829     0C98  3003               	movlw	3
   830     0C99  00AD               	movwf	KEYPAD_Init@col_3
   831     0C9A  3010               	movlw	16
   832     0C9B  158A  216F  158A   	fcall	_KEYPAD_Init
   833                           
   834                           ;main.c: 141:     UART_Init(9600);
   835     0C9E  3000               	movlw	0
   836     0C9F  1283               	bcf	3,5	;RP0=0, select bank0
   837     0CA0  1303               	bcf	3,6	;RP1=0, select bank0
   838     0CA1  00BC               	movwf	UART_Init@v_baudRate_u32+3
   839     0CA2  3000               	movlw	0
   840     0CA3  00BB               	movwf	UART_Init@v_baudRate_u32+2
   841     0CA4  3025               	movlw	37
   842     0CA5  00BA               	movwf	UART_Init@v_baudRate_u32+1
   843     0CA6  3080               	movlw	128
   844     0CA7  00B9               	movwf	UART_Init@v_baudRate_u32
   845     0CA8  158A  2159  158A   	fcall	_UART_Init
   846                           
   847                           ;main.c: 142:     DELAY_ms1(10);
   848     0CAB  300A               	movlw	10
   849     0CAC  1283               	bcf	3,5	;RP0=0, select bank0
   850     0CAD  1303               	bcf	3,6	;RP1=0, select bank0
   851     0CAE  00A2               	movwf	DELAY_ms1@ms_Count
   852     0CAF  3000               	movlw	0
   853     0CB0  00A3               	movwf	DELAY_ms1@ms_Count+1
   854     0CB1  118A  27CE  158A   	fcall	_DELAY_ms1
   855     0CB4                     l2309:
   856                           
   857                           ;main.c: 144:     TRISBbits.TRISB0 =0;
   858     0CB4  1683               	bsf	3,5	;RP0=1, select bank1
   859     0CB5  1303               	bcf	3,6	;RP1=0, select bank1
   860     0CB6  1006               	bcf	6,0	;volatile
   861     0CB7                     l2311:
   862                           
   863                           ;main.c: 145:     OPTION_REGbits.INTEDG=0;
   864     0CB7  1301               	bcf	1,6	;volatile
   865     0CB8                     l2313:
   866                           
   867                           ;main.c: 146:     INTCONbits.INTE=0;
   868     0CB8  120B               	bcf	11,4	;volatile
   869     0CB9                     l2315:
   870                           
   871                           ;main.c: 150:     OPTION_REGbits.PS0=1;
   872     0CB9  1401               	bsf	1,0	;volatile
   873     0CBA                     l2317:
   874                           
   875                           ;main.c: 151:     OPTION_REGbits.PS1=1;
   876     0CBA  1481               	bsf	1,1	;volatile
   877     0CBB                     l2319:
   878                           
   879                           ;main.c: 152:     OPTION_REGbits.PS2=1;
   880     0CBB  1501               	bsf	1,2	;volatile
   881     0CBC                     l2321:
   882                           
   883                           ;main.c: 153:     OPTION_REGbits.PSA=0;
   884     0CBC  1181               	bcf	1,3	;volatile
   885     0CBD                     l2323:
   886                           
   887                           ;main.c: 154:     OPTION_REGbits.T0CS=0;
   888     0CBD  1281               	bcf	1,5	;volatile
   889     0CBE                     l2325:
   890                           
   891                           ;main.c: 155:     INTCONbits.PEIE=1;
   892     0CBE  170B               	bsf	11,6	;volatile
   893     0CBF                     l2327:
   894                           
   895                           ;main.c: 156:     INTCONbits.T0IE=1;
   896     0CBF  168B               	bsf	11,5	;volatile
   897     0CC0                     l2329:
   898                           
   899                           ;main.c: 157:     TMR0=100;
   900     0CC0  3064               	movlw	100
   901     0CC1  1283               	bcf	3,5	;RP0=0, select bank0
   902     0CC2  1303               	bcf	3,6	;RP1=0, select bank0
   903     0CC3  0081               	movwf	1	;volatile
   904     0CC4                     l2331:
   905                           
   906                           ;main.c: 163:     INTCONbits.GIE=1;
   907     0CC4  178B               	bsf	11,7	;volatile
   908     0CC5                     l2333:
   909                           
   910                           ;main.c: 165:     {;main.c: 170:         if(counter_mode1==0&&counter_mode2==0)
   911     0CC5  086B               	movf	_counter_mode1,w
   912     0CC6  1D03               	btfss	3,2
   913     0CC7  2CC9               	goto	u2651
   914     0CC8  2CCA               	goto	u2650
   915     0CC9                     u2651:
   916     0CC9  2E79               	goto	l2425
   917     0CCA                     u2650:
   918     0CCA                     l2335:
   919     0CCA  086A               	movf	_counter_mode2,w
   920     0CCB  1D03               	btfss	3,2
   921     0CCC  2CCE               	goto	u2661
   922     0CCD  2CCF               	goto	u2660
   923     0CCE                     u2661:
   924     0CCE  2E79               	goto	l2425
   925     0CCF                     u2660:
   926     0CCF                     l2337:
   927                           
   928                           ;main.c: 173:             {;main.c: 174:                 if(get_key_f==1)
   929     0CCF  036C               	decf	_get_key_f,w
   930     0CD0  1D03               	btfss	3,2
   931     0CD1  2CD3               	goto	u2671
   932     0CD2  2CD4               	goto	u2670
   933     0CD3                     u2671:
   934     0CD3  2CFF               	goto	l2353
   935     0CD4                     u2670:
   936     0CD4                     l2339:
   937                           
   938                           ;main.c: 175:                 {;main.c: 176:                     key = KEYPAD_GetKey();
   939     0CD4  158A  2319  158A   	fcall	_KEYPAD_GetKey
   940     0CD7  1283               	bcf	3,5	;RP0=0, select bank0
   941     0CD8  1303               	bcf	3,6	;RP1=0, select bank0
   942     0CD9  00CD               	movwf	main@key
   943     0CDA                     l2341:
   944                           
   945                           ;main.c: 177:                     get_key_f=0;
   946     0CDA  01EC               	clrf	_get_key_f
   947     0CDB                     l2343:
   948                           
   949                           ;main.c: 178:                     if((key>=0x30&&key<=0x39)||(key>=0x41&&key<=0x46))
   950     0CDB  3030               	movlw	48
   951     0CDC  024D               	subwf	main@key,w
   952     0CDD  1C03               	skipc
   953     0CDE  2CE0               	goto	u2681
   954     0CDF  2CE1               	goto	u2680
   955     0CE0                     u2681:
   956     0CE0  2CE7               	goto	l2347
   957     0CE1                     u2680:
   958     0CE1                     l2345:
   959     0CE1  303A               	movlw	58
   960     0CE2  024D               	subwf	main@key,w
   961     0CE3  1C03               	skipc
   962     0CE4  2CE6               	goto	u2691
   963     0CE5  2CE7               	goto	u2690
   964     0CE6                     u2691:
   965     0CE6  2CF3               	goto	l2351
   966     0CE7                     u2690:
   967     0CE7                     l2347:
   968     0CE7  3041               	movlw	65
   969     0CE8  024D               	subwf	main@key,w
   970     0CE9  1C03               	skipc
   971     0CEA  2CEC               	goto	u2701
   972     0CEB  2CED               	goto	u2700
   973     0CEC                     u2701:
   974     0CEC  2CFF               	goto	l2353
   975     0CED                     u2700:
   976     0CED                     l2349:
   977     0CED  3047               	movlw	71
   978     0CEE  024D               	subwf	main@key,w
   979     0CEF  1803               	skipnc
   980     0CF0  2CF2               	goto	u2711
   981     0CF1  2CF3               	goto	u2710
   982     0CF2                     u2711:
   983     0CF2  2CFF               	goto	l2353
   984     0CF3                     u2710:
   985     0CF3                     l2351:
   986                           
   987                           ;main.c: 179:                     {;main.c: 180:                         UART_TxChar(key
      +                          );
   988     0CF3  084D               	movf	main@key,w
   989     0CF4  118A  27F5  158A   	fcall	_UART_TxChar
   990                           
   991                           ;main.c: 181:                         UART_TxChar('\r');
   992     0CF7  300D               	movlw	13
   993     0CF8  118A  27F5  158A   	fcall	_UART_TxChar
   994                           
   995                           ;main.c: 182:                         UART_TxChar('\n');
   996     0CFB  300A               	movlw	10
   997     0CFC  118A  27F5  158A   	fcall	_UART_TxChar
   998     0CFF                     l2353:
   999                           
  1000                           ;main.c: 201:                 num = cnt;
  1001     0CFF  1283               	bcf	3,5	;RP0=0, select bank0
  1002     0D00  1303               	bcf	3,6	;RP1=0, select bank0
  1003     0D01  0861               	movf	_cnt+3,w
  1004     0D02  00D1               	movwf	main@num+3
  1005     0D03  0860               	movf	_cnt+2,w
  1006     0D04  00D0               	movwf	main@num+2
  1007     0D05  085F               	movf	_cnt+1,w
  1008     0D06  00CF               	movwf	main@num+1
  1009     0D07  085E               	movf	_cnt,w
  1010     0D08  00CE               	movwf	main@num
  1011     0D09                     l2355:
  1012                           
  1013                           ;main.c: 202:                 temp = num / 10000;
  1014     0D09  3000               	movlw	0
  1015     0D0A  00A5               	movwf	___lldiv@divisor+3
  1016     0D0B  3000               	movlw	0
  1017     0D0C  00A4               	movwf	___lldiv@divisor+2
  1018     0D0D  3027               	movlw	39
  1019     0D0E  00A3               	movwf	___lldiv@divisor+1
  1020     0D0F  3010               	movlw	16
  1021     0D10  00A2               	movwf	___lldiv@divisor
  1022     0D11  0851               	movf	main@num+3,w
  1023     0D12  00A9               	movwf	___lldiv@dividend+3
  1024     0D13  0850               	movf	main@num+2,w
  1025     0D14  00A8               	movwf	___lldiv@dividend+2
  1026     0D15  084F               	movf	main@num+1,w
  1027     0D16  00A7               	movwf	___lldiv@dividend+1
  1028     0D17  084E               	movf	main@num,w
  1029     0D18  00A6               	movwf	___lldiv@dividend
  1030     0D19  158A  22B1  158A   	fcall	___lldiv
  1031     0D1C  1283               	bcf	3,5	;RP0=0, select bank0
  1032     0D1D  1303               	bcf	3,6	;RP1=0, select bank0
  1033     0D1E  0823               	movf	?___lldiv+1,w
  1034     0D1F  00CC               	movwf	main@temp+1
  1035     0D20  0822               	movf	?___lldiv,w
  1036     0D21  00CB               	movwf	main@temp
  1037     0D22                     l2357:
  1038                           
  1039                           ;main.c: 203:                 num = num % 10000;
  1040     0D22  3000               	movlw	0
  1041     0D23  00A5               	movwf	___llmod@divisor+3
  1042     0D24  3000               	movlw	0
  1043     0D25  00A4               	movwf	___llmod@divisor+2
  1044     0D26  3027               	movlw	39
  1045     0D27  00A3               	movwf	___llmod@divisor+1
  1046     0D28  3010               	movlw	16
  1047     0D29  00A2               	movwf	___llmod@divisor
  1048     0D2A  0851               	movf	main@num+3,w
  1049     0D2B  00A9               	movwf	___llmod@dividend+3
  1050     0D2C  0850               	movf	main@num+2,w
  1051     0D2D  00A8               	movwf	___llmod@dividend+2
  1052     0D2E  084F               	movf	main@num+1,w
  1053     0D2F  00A7               	movwf	___llmod@dividend+1
  1054     0D30  084E               	movf	main@num,w
  1055     0D31  00A6               	movwf	___llmod@dividend
  1056     0D32  158A  21FD  158A   	fcall	___llmod
  1057     0D35  1283               	bcf	3,5	;RP0=0, select bank0
  1058     0D36  1303               	bcf	3,6	;RP1=0, select bank0
  1059     0D37  0825               	movf	?___llmod+3,w
  1060     0D38  00D1               	movwf	main@num+3
  1061     0D39  0824               	movf	?___llmod+2,w
  1062     0D3A  00D0               	movwf	main@num+2
  1063     0D3B  0823               	movf	?___llmod+1,w
  1064     0D3C  00CF               	movwf	main@num+1
  1065     0D3D  0822               	movf	?___llmod,w
  1066     0D3E  00CE               	movwf	main@num
  1067     0D3F                     l2359:
  1068                           
  1069                           ;main.c: 204:                 PORTB = 0x02;
  1070     0D3F  3002               	movlw	2
  1071     0D40  0086               	movwf	6	;volatile
  1072     0D41                     l2361:
  1073                           
  1074                           ;main.c: 205:                 PORTD = seg_code[temp];
  1075     0D41  084B               	movf	main@temp,w
  1076     0D42  3E41               	addlw	(low (main@seg_code| 0))& (0+255)
  1077     0D43  0084               	movwf	4
  1078     0D44  1383               	bcf	3,7	;select IRP bank0
  1079     0D45  0800               	movf	0,w
  1080     0D46  0088               	movwf	8	;volatile
  1081     0D47                     l2363:
  1082                           
  1083                           ;main.c: 206:                 DELAY_ms1(1);
  1084     0D47  3001               	movlw	1
  1085     0D48  00A2               	movwf	DELAY_ms1@ms_Count
  1086     0D49  3000               	movlw	0
  1087     0D4A  00A3               	movwf	DELAY_ms1@ms_Count+1
  1088     0D4B  118A  27CE  158A   	fcall	_DELAY_ms1
  1089     0D4E                     l2365:
  1090                           
  1091                           ;main.c: 208:                 temp = num / 1000;
  1092     0D4E  3000               	movlw	0
  1093     0D4F  1283               	bcf	3,5	;RP0=0, select bank0
  1094     0D50  1303               	bcf	3,6	;RP1=0, select bank0
  1095     0D51  00A5               	movwf	___lldiv@divisor+3
  1096     0D52  3000               	movlw	0
  1097     0D53  00A4               	movwf	___lldiv@divisor+2
  1098     0D54  3003               	movlw	3
  1099     0D55  00A3               	movwf	___lldiv@divisor+1
  1100     0D56  30E8               	movlw	232
  1101     0D57  00A2               	movwf	___lldiv@divisor
  1102     0D58  0851               	movf	main@num+3,w
  1103     0D59  00A9               	movwf	___lldiv@dividend+3
  1104     0D5A  0850               	movf	main@num+2,w
  1105     0D5B  00A8               	movwf	___lldiv@dividend+2
  1106     0D5C  084F               	movf	main@num+1,w
  1107     0D5D  00A7               	movwf	___lldiv@dividend+1
  1108     0D5E  084E               	movf	main@num,w
  1109     0D5F  00A6               	movwf	___lldiv@dividend
  1110     0D60  158A  22B1  158A   	fcall	___lldiv
  1111     0D63  1283               	bcf	3,5	;RP0=0, select bank0
  1112     0D64  1303               	bcf	3,6	;RP1=0, select bank0
  1113     0D65  0823               	movf	?___lldiv+1,w
  1114     0D66  00CC               	movwf	main@temp+1
  1115     0D67  0822               	movf	?___lldiv,w
  1116     0D68  00CB               	movwf	main@temp
  1117     0D69                     l2367:
  1118                           
  1119                           ;main.c: 209:                 num = num % 1000;
  1120     0D69  3000               	movlw	0
  1121     0D6A  00A5               	movwf	___llmod@divisor+3
  1122     0D6B  3000               	movlw	0
  1123     0D6C  00A4               	movwf	___llmod@divisor+2
  1124     0D6D  3003               	movlw	3
  1125     0D6E  00A3               	movwf	___llmod@divisor+1
  1126     0D6F  30E8               	movlw	232
  1127     0D70  00A2               	movwf	___llmod@divisor
  1128     0D71  0851               	movf	main@num+3,w
  1129     0D72  00A9               	movwf	___llmod@dividend+3
  1130     0D73  0850               	movf	main@num+2,w
  1131     0D74  00A8               	movwf	___llmod@dividend+2
  1132     0D75  084F               	movf	main@num+1,w
  1133     0D76  00A7               	movwf	___llmod@dividend+1
  1134     0D77  084E               	movf	main@num,w
  1135     0D78  00A6               	movwf	___llmod@dividend
  1136     0D79  158A  21FD  158A   	fcall	___llmod
  1137     0D7C  1283               	bcf	3,5	;RP0=0, select bank0
  1138     0D7D  1303               	bcf	3,6	;RP1=0, select bank0
  1139     0D7E  0825               	movf	?___llmod+3,w
  1140     0D7F  00D1               	movwf	main@num+3
  1141     0D80  0824               	movf	?___llmod+2,w
  1142     0D81  00D0               	movwf	main@num+2
  1143     0D82  0823               	movf	?___llmod+1,w
  1144     0D83  00CF               	movwf	main@num+1
  1145     0D84  0822               	movf	?___llmod,w
  1146     0D85  00CE               	movwf	main@num
  1147     0D86                     l2369:
  1148                           
  1149                           ;main.c: 210:                 PORTB = 0x04;
  1150     0D86  3004               	movlw	4
  1151     0D87  0086               	movwf	6	;volatile
  1152     0D88                     l2371:
  1153                           
  1154                           ;main.c: 211:                 PORTD = seg_code[temp];
  1155     0D88  084B               	movf	main@temp,w
  1156     0D89  3E41               	addlw	(low (main@seg_code| 0))& (0+255)
  1157     0D8A  0084               	movwf	4
  1158     0D8B  1383               	bcf	3,7	;select IRP bank0
  1159     0D8C  0800               	movf	0,w
  1160     0D8D  0088               	movwf	8	;volatile
  1161     0D8E                     l2373:
  1162                           
  1163                           ;main.c: 212:                 DELAY_ms1(1);
  1164     0D8E  3001               	movlw	1
  1165     0D8F  00A2               	movwf	DELAY_ms1@ms_Count
  1166     0D90  3000               	movlw	0
  1167     0D91  00A3               	movwf	DELAY_ms1@ms_Count+1
  1168     0D92  118A  27CE  158A   	fcall	_DELAY_ms1
  1169     0D95                     l2375:
  1170                           
  1171                           ;main.c: 214:                 temp = num / 100;
  1172     0D95  3000               	movlw	0
  1173     0D96  1283               	bcf	3,5	;RP0=0, select bank0
  1174     0D97  1303               	bcf	3,6	;RP1=0, select bank0
  1175     0D98  00A5               	movwf	___lldiv@divisor+3
  1176     0D99  3000               	movlw	0
  1177     0D9A  00A4               	movwf	___lldiv@divisor+2
  1178     0D9B  3000               	movlw	0
  1179     0D9C  00A3               	movwf	___lldiv@divisor+1
  1180     0D9D  3064               	movlw	100
  1181     0D9E  00A2               	movwf	___lldiv@divisor
  1182     0D9F  0851               	movf	main@num+3,w
  1183     0DA0  00A9               	movwf	___lldiv@dividend+3
  1184     0DA1  0850               	movf	main@num+2,w
  1185     0DA2  00A8               	movwf	___lldiv@dividend+2
  1186     0DA3  084F               	movf	main@num+1,w
  1187     0DA4  00A7               	movwf	___lldiv@dividend+1
  1188     0DA5  084E               	movf	main@num,w
  1189     0DA6  00A6               	movwf	___lldiv@dividend
  1190     0DA7  158A  22B1  158A   	fcall	___lldiv
  1191     0DAA  1283               	bcf	3,5	;RP0=0, select bank0
  1192     0DAB  1303               	bcf	3,6	;RP1=0, select bank0
  1193     0DAC  0823               	movf	?___lldiv+1,w
  1194     0DAD  00CC               	movwf	main@temp+1
  1195     0DAE  0822               	movf	?___lldiv,w
  1196     0DAF  00CB               	movwf	main@temp
  1197     0DB0                     l2377:
  1198                           
  1199                           ;main.c: 215:                 num = num % 100;
  1200     0DB0  3000               	movlw	0
  1201     0DB1  00A5               	movwf	___llmod@divisor+3
  1202     0DB2  3000               	movlw	0
  1203     0DB3  00A4               	movwf	___llmod@divisor+2
  1204     0DB4  3000               	movlw	0
  1205     0DB5  00A3               	movwf	___llmod@divisor+1
  1206     0DB6  3064               	movlw	100
  1207     0DB7  00A2               	movwf	___llmod@divisor
  1208     0DB8  0851               	movf	main@num+3,w
  1209     0DB9  00A9               	movwf	___llmod@dividend+3
  1210     0DBA  0850               	movf	main@num+2,w
  1211     0DBB  00A8               	movwf	___llmod@dividend+2
  1212     0DBC  084F               	movf	main@num+1,w
  1213     0DBD  00A7               	movwf	___llmod@dividend+1
  1214     0DBE  084E               	movf	main@num,w
  1215     0DBF  00A6               	movwf	___llmod@dividend
  1216     0DC0  158A  21FD  158A   	fcall	___llmod
  1217     0DC3  1283               	bcf	3,5	;RP0=0, select bank0
  1218     0DC4  1303               	bcf	3,6	;RP1=0, select bank0
  1219     0DC5  0825               	movf	?___llmod+3,w
  1220     0DC6  00D1               	movwf	main@num+3
  1221     0DC7  0824               	movf	?___llmod+2,w
  1222     0DC8  00D0               	movwf	main@num+2
  1223     0DC9  0823               	movf	?___llmod+1,w
  1224     0DCA  00CF               	movwf	main@num+1
  1225     0DCB  0822               	movf	?___llmod,w
  1226     0DCC  00CE               	movwf	main@num
  1227     0DCD                     l2379:
  1228                           
  1229                           ;main.c: 216:                 PORTB = 0x08;
  1230     0DCD  3008               	movlw	8
  1231     0DCE  0086               	movwf	6	;volatile
  1232     0DCF                     l2381:
  1233                           
  1234                           ;main.c: 217:                 PORTD = seg_code[temp];
  1235     0DCF  084B               	movf	main@temp,w
  1236     0DD0  3E41               	addlw	(low (main@seg_code| 0))& (0+255)
  1237     0DD1  0084               	movwf	4
  1238     0DD2  1383               	bcf	3,7	;select IRP bank0
  1239     0DD3  0800               	movf	0,w
  1240     0DD4  0088               	movwf	8	;volatile
  1241     0DD5                     l2383:
  1242                           
  1243                           ;main.c: 218:                 DELAY_ms1(1);
  1244     0DD5  3001               	movlw	1
  1245     0DD6  00A2               	movwf	DELAY_ms1@ms_Count
  1246     0DD7  3000               	movlw	0
  1247     0DD8  00A3               	movwf	DELAY_ms1@ms_Count+1
  1248     0DD9  118A  27CE  158A   	fcall	_DELAY_ms1
  1249     0DDC                     l2385:
  1250                           
  1251                           ;main.c: 220:                 temp = num / 10;
  1252     0DDC  3000               	movlw	0
  1253     0DDD  1283               	bcf	3,5	;RP0=0, select bank0
  1254     0DDE  1303               	bcf	3,6	;RP1=0, select bank0
  1255     0DDF  00A5               	movwf	___lldiv@divisor+3
  1256     0DE0  3000               	movlw	0
  1257     0DE1  00A4               	movwf	___lldiv@divisor+2
  1258     0DE2  3000               	movlw	0
  1259     0DE3  00A3               	movwf	___lldiv@divisor+1
  1260     0DE4  300A               	movlw	10
  1261     0DE5  00A2               	movwf	___lldiv@divisor
  1262     0DE6  0851               	movf	main@num+3,w
  1263     0DE7  00A9               	movwf	___lldiv@dividend+3
  1264     0DE8  0850               	movf	main@num+2,w
  1265     0DE9  00A8               	movwf	___lldiv@dividend+2
  1266     0DEA  084F               	movf	main@num+1,w
  1267     0DEB  00A7               	movwf	___lldiv@dividend+1
  1268     0DEC  084E               	movf	main@num,w
  1269     0DED  00A6               	movwf	___lldiv@dividend
  1270     0DEE  158A  22B1  158A   	fcall	___lldiv
  1271     0DF1  1283               	bcf	3,5	;RP0=0, select bank0
  1272     0DF2  1303               	bcf	3,6	;RP1=0, select bank0
  1273     0DF3  0823               	movf	?___lldiv+1,w
  1274     0DF4  00CC               	movwf	main@temp+1
  1275     0DF5  0822               	movf	?___lldiv,w
  1276     0DF6  00CB               	movwf	main@temp
  1277     0DF7                     l2387:
  1278                           
  1279                           ;main.c: 221:                 PORTB = 0x10;
  1280     0DF7  3010               	movlw	16
  1281     0DF8  0086               	movwf	6	;volatile
  1282     0DF9                     l2389:
  1283                           
  1284                           ;main.c: 222:                 PORTD = seg_code[temp];
  1285     0DF9  084B               	movf	main@temp,w
  1286     0DFA  3E41               	addlw	(low (main@seg_code| 0))& (0+255)
  1287     0DFB  0084               	movwf	4
  1288     0DFC  1383               	bcf	3,7	;select IRP bank0
  1289     0DFD  0800               	movf	0,w
  1290     0DFE  0088               	movwf	8	;volatile
  1291     0DFF                     l2391:
  1292                           
  1293                           ;main.c: 223:                 DELAY_ms1(1);
  1294     0DFF  3001               	movlw	1
  1295     0E00  00A2               	movwf	DELAY_ms1@ms_Count
  1296     0E01  3000               	movlw	0
  1297     0E02  00A3               	movwf	DELAY_ms1@ms_Count+1
  1298     0E03  118A  27CE  158A   	fcall	_DELAY_ms1
  1299     0E06                     l2393:
  1300                           
  1301                           ;main.c: 225:                 temp = num % 10;
  1302     0E06  3000               	movlw	0
  1303     0E07  1283               	bcf	3,5	;RP0=0, select bank0
  1304     0E08  1303               	bcf	3,6	;RP1=0, select bank0
  1305     0E09  00A5               	movwf	___llmod@divisor+3
  1306     0E0A  3000               	movlw	0
  1307     0E0B  00A4               	movwf	___llmod@divisor+2
  1308     0E0C  3000               	movlw	0
  1309     0E0D  00A3               	movwf	___llmod@divisor+1
  1310     0E0E  300A               	movlw	10
  1311     0E0F  00A2               	movwf	___llmod@divisor
  1312     0E10  0851               	movf	main@num+3,w
  1313     0E11  00A9               	movwf	___llmod@dividend+3
  1314     0E12  0850               	movf	main@num+2,w
  1315     0E13  00A8               	movwf	___llmod@dividend+2
  1316     0E14  084F               	movf	main@num+1,w
  1317     0E15  00A7               	movwf	___llmod@dividend+1
  1318     0E16  084E               	movf	main@num,w
  1319     0E17  00A6               	movwf	___llmod@dividend
  1320     0E18  158A  21FD  158A   	fcall	___llmod
  1321     0E1B  1283               	bcf	3,5	;RP0=0, select bank0
  1322     0E1C  1303               	bcf	3,6	;RP1=0, select bank0
  1323     0E1D  0823               	movf	?___llmod+1,w
  1324     0E1E  00CC               	movwf	main@temp+1
  1325     0E1F  0822               	movf	?___llmod,w
  1326     0E20  00CB               	movwf	main@temp
  1327     0E21                     l2395:
  1328                           
  1329                           ;main.c: 226:                 PORTB = 0x20;
  1330     0E21  3020               	movlw	32
  1331     0E22  0086               	movwf	6	;volatile
  1332     0E23                     l2397:
  1333                           
  1334                           ;main.c: 227:                 PORTD = seg_code[temp];
  1335     0E23  084B               	movf	main@temp,w
  1336     0E24  3E41               	addlw	(low (main@seg_code| 0))& (0+255)
  1337     0E25  0084               	movwf	4
  1338     0E26  1383               	bcf	3,7	;select IRP bank0
  1339     0E27  0800               	movf	0,w
  1340     0E28  0088               	movwf	8	;volatile
  1341     0E29                     l2399:
  1342                           
  1343                           ;main.c: 228:                 DELAY_ms1(1);
  1344     0E29  3001               	movlw	1
  1345     0E2A  00A2               	movwf	DELAY_ms1@ms_Count
  1346     0E2B  3000               	movlw	0
  1347     0E2C  00A3               	movwf	DELAY_ms1@ms_Count+1
  1348     0E2D  118A  27CE  158A   	fcall	_DELAY_ms1
  1349     0E30                     l2401:
  1350                           
  1351                           ;main.c: 229:                 if(key=='3')
  1352     0E30  3033               	movlw	51
  1353     0E31  1283               	bcf	3,5	;RP0=0, select bank0
  1354     0E32  1303               	bcf	3,6	;RP1=0, select bank0
  1355     0E33  064D               	xorwf	main@key,w
  1356     0E34  1D03               	btfss	3,2
  1357     0E35  2E37               	goto	u2721
  1358     0E36  2E38               	goto	u2720
  1359     0E37                     u2721:
  1360     0E37  2E4B               	goto	l2413
  1361     0E38                     u2720:
  1362     0E38                     l2403:
  1363                           
  1364                           ;main.c: 230:                 {;main.c: 231:                     TRISBbits.TRISB0 =1;
  1365     0E38  1683               	bsf	3,5	;RP0=1, select bank1
  1366     0E39  1303               	bcf	3,6	;RP1=0, select bank1
  1367     0E3A  1406               	bsf	6,0	;volatile
  1368                           
  1369                           ;main.c: 232:                     INTCONbits.INTE=1;
  1370     0E3B  160B               	bsf	11,4	;volatile
  1371     0E3C                     l2405:
  1372                           
  1373                           ;main.c: 233:                     cnt=0;
  1374     0E3C  3000               	movlw	0
  1375     0E3D  1283               	bcf	3,5	;RP0=0, select bank0
  1376     0E3E  1303               	bcf	3,6	;RP1=0, select bank0
  1377     0E3F  00E1               	movwf	_cnt+3
  1378     0E40  3000               	movlw	0
  1379     0E41  00E0               	movwf	_cnt+2
  1380     0E42  3000               	movlw	0
  1381     0E43  00DF               	movwf	_cnt+1
  1382     0E44  3000               	movlw	0
  1383     0E45  00DE               	movwf	_cnt
  1384     0E46                     l2407:
  1385                           
  1386                           ;main.c: 234:                     RE1=1;
  1387     0E46  1489               	bsf	9,1	;volatile
  1388     0E47                     l2409:
  1389                           
  1390                           ;main.c: 235:                     RE0=1;
  1391     0E47  1409               	bsf	9,0	;volatile
  1392     0E48                     l2411:
  1393                           
  1394                           ;main.c: 236:                     counter_mode1=1;
  1395     0E48  01EB               	clrf	_counter_mode1
  1396     0E49  0AEB               	incf	_counter_mode1,f
  1397                           
  1398                           ;main.c: 237:                     break;
  1399     0E4A  2E79               	goto	l2425
  1400     0E4B                     l2413:
  1401                           
  1402                           ;main.c: 239:                 if(key=='3')
  1403     0E4B  3033               	movlw	51
  1404     0E4C  064D               	xorwf	main@key,w
  1405     0E4D  1D03               	btfss	3,2
  1406     0E4E  2E50               	goto	u2731
  1407     0E4F  2E51               	goto	u2730
  1408     0E50                     u2731:
  1409     0E50  2CCF               	goto	l2337
  1410     0E51                     u2730:
  1411     0E51                     l2415:
  1412                           
  1413                           ;main.c: 240:                 {;main.c: 241:                     TRISBbits.TRISB0 =0;
  1414     0E51  1683               	bsf	3,5	;RP0=1, select bank1
  1415     0E52  1303               	bcf	3,6	;RP1=0, select bank1
  1416     0E53  1006               	bcf	6,0	;volatile
  1417                           
  1418                           ;main.c: 242:                     INTCONbits.INTE=0;
  1419     0E54  120B               	bcf	11,4	;volatile
  1420     0E55                     l2417:
  1421                           
  1422                           ;main.c: 243:                     cnt=0;
  1423     0E55  3000               	movlw	0
  1424     0E56  1283               	bcf	3,5	;RP0=0, select bank0
  1425     0E57  1303               	bcf	3,6	;RP1=0, select bank0
  1426     0E58  00E1               	movwf	_cnt+3
  1427     0E59  3000               	movlw	0
  1428     0E5A  00E0               	movwf	_cnt+2
  1429     0E5B  3000               	movlw	0
  1430     0E5C  00DF               	movwf	_cnt+1
  1431     0E5D  3000               	movlw	0
  1432     0E5E  00DE               	movwf	_cnt
  1433     0E5F                     l2419:
  1434                           
  1435                           ;main.c: 244:                     GPIO_PinWrite(RE0,0x01u);
  1436     0E5F  01A2               	clrf	GPIO_PinWrite@var_pinValue_u8
  1437     0E60  0AA2               	incf	GPIO_PinWrite@var_pinValue_u8,f
  1438     0E61  3000               	movlw	0
  1439     0E62  1809               	btfsc	9,0	;volatile
  1440     0E63  3001               	movlw	1
  1441     0E64  158A  2396  158A   	fcall	_GPIO_PinWrite
  1442     0E67                     l2421:
  1443                           
  1444                           ;main.c: 245:                     GPIO_PinWrite(RE1,0x01u);
  1445     0E67  1283               	bcf	3,5	;RP0=0, select bank0
  1446     0E68  1303               	bcf	3,6	;RP1=0, select bank0
  1447     0E69  01A2               	clrf	GPIO_PinWrite@var_pinValue_u8
  1448     0E6A  0AA2               	incf	GPIO_PinWrite@var_pinValue_u8,f
  1449     0E6B  3000               	movlw	0
  1450     0E6C  1889               	btfsc	9,1	;volatile
  1451     0E6D  3001               	movlw	1
  1452     0E6E  158A  2396  158A   	fcall	_GPIO_PinWrite
  1453     0E71                     l2423:
  1454                           
  1455                           ;main.c: 246:                     setval_mode=1;
  1456     0E71  1283               	bcf	3,5	;RP0=0, select bank0
  1457     0E72  1303               	bcf	3,6	;RP1=0, select bank0
  1458     0E73  01E9               	clrf	_setval_mode
  1459     0E74  0AE9               	incf	_setval_mode,f
  1460                           
  1461                           ;main.c: 247:                     seg_set=1;
  1462     0E75  3001               	movlw	1
  1463     0E76  00E2               	movwf	_seg_set
  1464     0E77  3000               	movlw	0
  1465     0E78  00E3               	movwf	_seg_set+1
  1466     0E79                     l2425:	
  1467                           ;main.c: 248:                     break;
  1468                           
  1469                           
  1470                           ;main.c: 253:         if(counter_mode1==1)
  1471     0E79  036B               	decf	_counter_mode1,w
  1472     0E7A  1D03               	btfss	3,2
  1473     0E7B  2E7D               	goto	u2741
  1474     0E7C  2E7E               	goto	u2740
  1475     0E7D                     u2741:
  1476     0E7D  2FF9               	goto	l2505
  1477     0E7E                     u2740:
  1478     0E7E                     l2427:
  1479                           
  1480                           ;main.c: 256:             {;main.c: 257:                 if(get_key_f==1)
  1481     0E7E  036C               	decf	_get_key_f,w
  1482     0E7F  1D03               	btfss	3,2
  1483     0E80  2E82               	goto	u2751
  1484     0E81  2E83               	goto	u2750
  1485     0E82                     u2751:
  1486     0E82  2EAE               	goto	l2443
  1487     0E83                     u2750:
  1488     0E83                     l2429:
  1489                           
  1490                           ;main.c: 258:                 {;main.c: 259:                     key = KEYPAD_GetKey();
  1491     0E83  158A  2319  158A   	fcall	_KEYPAD_GetKey
  1492     0E86  1283               	bcf	3,5	;RP0=0, select bank0
  1493     0E87  1303               	bcf	3,6	;RP1=0, select bank0
  1494     0E88  00CD               	movwf	main@key
  1495     0E89                     l2431:
  1496                           
  1497                           ;main.c: 260:                     get_key_f=0;
  1498     0E89  01EC               	clrf	_get_key_f
  1499     0E8A                     l2433:
  1500                           
  1501                           ;main.c: 261:                     if((key>=0x30&&key<=0x39)||(key>=0x41&&key<=0x46))
  1502     0E8A  3030               	movlw	48
  1503     0E8B  024D               	subwf	main@key,w
  1504     0E8C  1C03               	skipc
  1505     0E8D  2E8F               	goto	u2761
  1506     0E8E  2E90               	goto	u2760
  1507     0E8F                     u2761:
  1508     0E8F  2E96               	goto	l2437
  1509     0E90                     u2760:
  1510     0E90                     l2435:
  1511     0E90  303A               	movlw	58
  1512     0E91  024D               	subwf	main@key,w
  1513     0E92  1C03               	skipc
  1514     0E93  2E95               	goto	u2771
  1515     0E94  2E96               	goto	u2770
  1516     0E95                     u2771:
  1517     0E95  2EA2               	goto	l2441
  1518     0E96                     u2770:
  1519     0E96                     l2437:
  1520     0E96  3041               	movlw	65
  1521     0E97  024D               	subwf	main@key,w
  1522     0E98  1C03               	skipc
  1523     0E99  2E9B               	goto	u2781
  1524     0E9A  2E9C               	goto	u2780
  1525     0E9B                     u2781:
  1526     0E9B  2EAE               	goto	l2443
  1527     0E9C                     u2780:
  1528     0E9C                     l2439:
  1529     0E9C  3047               	movlw	71
  1530     0E9D  024D               	subwf	main@key,w
  1531     0E9E  1803               	skipnc
  1532     0E9F  2EA1               	goto	u2791
  1533     0EA0  2EA2               	goto	u2790
  1534     0EA1                     u2791:
  1535     0EA1  2EAE               	goto	l2443
  1536     0EA2                     u2790:
  1537     0EA2                     l2441:
  1538                           
  1539                           ;main.c: 262:                     {;main.c: 263:                         UART_TxChar(key
      +                          );
  1540     0EA2  084D               	movf	main@key,w
  1541     0EA3  118A  27F5  158A   	fcall	_UART_TxChar
  1542                           
  1543                           ;main.c: 264:                         UART_TxChar('\r');
  1544     0EA6  300D               	movlw	13
  1545     0EA7  118A  27F5  158A   	fcall	_UART_TxChar
  1546                           
  1547                           ;main.c: 265:                         UART_TxChar('\n');
  1548     0EAA  300A               	movlw	10
  1549     0EAB  118A  27F5  158A   	fcall	_UART_TxChar
  1550     0EAE                     l2443:
  1551                           
  1552                           ;main.c: 269:                 num = cnt;
  1553     0EAE  1283               	bcf	3,5	;RP0=0, select bank0
  1554     0EAF  1303               	bcf	3,6	;RP1=0, select bank0
  1555     0EB0  0861               	movf	_cnt+3,w
  1556     0EB1  00D1               	movwf	main@num+3
  1557     0EB2  0860               	movf	_cnt+2,w
  1558     0EB3  00D0               	movwf	main@num+2
  1559     0EB4  085F               	movf	_cnt+1,w
  1560     0EB5  00CF               	movwf	main@num+1
  1561     0EB6  085E               	movf	_cnt,w
  1562     0EB7  00CE               	movwf	main@num
  1563     0EB8                     l2445:
  1564                           
  1565                           ;main.c: 270:                 temp = num / 10000;
  1566     0EB8  3000               	movlw	0
  1567     0EB9  00A5               	movwf	___lldiv@divisor+3
  1568     0EBA  3000               	movlw	0
  1569     0EBB  00A4               	movwf	___lldiv@divisor+2
  1570     0EBC  3027               	movlw	39
  1571     0EBD  00A3               	movwf	___lldiv@divisor+1
  1572     0EBE  3010               	movlw	16
  1573     0EBF  00A2               	movwf	___lldiv@divisor
  1574     0EC0  0851               	movf	main@num+3,w
  1575     0EC1  00A9               	movwf	___lldiv@dividend+3
  1576     0EC2  0850               	movf	main@num+2,w
  1577     0EC3  00A8               	movwf	___lldiv@dividend+2
  1578     0EC4  084F               	movf	main@num+1,w
  1579     0EC5  00A7               	movwf	___lldiv@dividend+1
  1580     0EC6  084E               	movf	main@num,w
  1581     0EC7  00A6               	movwf	___lldiv@dividend
  1582     0EC8  158A  22B1  158A   	fcall	___lldiv
  1583     0ECB  1283               	bcf	3,5	;RP0=0, select bank0
  1584     0ECC  1303               	bcf	3,6	;RP1=0, select bank0
  1585     0ECD  0823               	movf	?___lldiv+1,w
  1586     0ECE  00CC               	movwf	main@temp+1
  1587     0ECF  0822               	movf	?___lldiv,w
  1588     0ED0  00CB               	movwf	main@temp
  1589     0ED1                     l2447:
  1590                           
  1591                           ;main.c: 271:                 num = num % 10000;
  1592     0ED1  3000               	movlw	0
  1593     0ED2  00A5               	movwf	___llmod@divisor+3
  1594     0ED3  3000               	movlw	0
  1595     0ED4  00A4               	movwf	___llmod@divisor+2
  1596     0ED5  3027               	movlw	39
  1597     0ED6  00A3               	movwf	___llmod@divisor+1
  1598     0ED7  3010               	movlw	16
  1599     0ED8  00A2               	movwf	___llmod@divisor
  1600     0ED9  0851               	movf	main@num+3,w
  1601     0EDA  00A9               	movwf	___llmod@dividend+3
  1602     0EDB  0850               	movf	main@num+2,w
  1603     0EDC  00A8               	movwf	___llmod@dividend+2
  1604     0EDD  084F               	movf	main@num+1,w
  1605     0EDE  00A7               	movwf	___llmod@dividend+1
  1606     0EDF  084E               	movf	main@num,w
  1607     0EE0  00A6               	movwf	___llmod@dividend
  1608     0EE1  158A  21FD  158A   	fcall	___llmod
  1609     0EE4  1283               	bcf	3,5	;RP0=0, select bank0
  1610     0EE5  1303               	bcf	3,6	;RP1=0, select bank0
  1611     0EE6  0825               	movf	?___llmod+3,w
  1612     0EE7  00D1               	movwf	main@num+3
  1613     0EE8  0824               	movf	?___llmod+2,w
  1614     0EE9  00D0               	movwf	main@num+2
  1615     0EEA  0823               	movf	?___llmod+1,w
  1616     0EEB  00CF               	movwf	main@num+1
  1617     0EEC  0822               	movf	?___llmod,w
  1618     0EED  00CE               	movwf	main@num
  1619     0EEE                     l2449:
  1620                           
  1621                           ;main.c: 272:                 PORTB = 0x02;
  1622     0EEE  3002               	movlw	2
  1623     0EEF  0086               	movwf	6	;volatile
  1624     0EF0                     l2451:
  1625                           
  1626                           ;main.c: 273:                 PORTD = seg_code[temp];
  1627     0EF0  084B               	movf	main@temp,w
  1628     0EF1  3E41               	addlw	(low (main@seg_code| 0))& (0+255)
  1629     0EF2  0084               	movwf	4
  1630     0EF3  1383               	bcf	3,7	;select IRP bank0
  1631     0EF4  0800               	movf	0,w
  1632     0EF5  0088               	movwf	8	;volatile
  1633     0EF6                     l2453:
  1634                           
  1635                           ;main.c: 274:                 DELAY_ms1(1);
  1636     0EF6  3001               	movlw	1
  1637     0EF7  00A2               	movwf	DELAY_ms1@ms_Count
  1638     0EF8  3000               	movlw	0
  1639     0EF9  00A3               	movwf	DELAY_ms1@ms_Count+1
  1640     0EFA  118A  27CE  158A   	fcall	_DELAY_ms1
  1641     0EFD                     l2455:
  1642                           
  1643                           ;main.c: 276:                 temp = num / 1000;
  1644     0EFD  3000               	movlw	0
  1645     0EFE  1283               	bcf	3,5	;RP0=0, select bank0
  1646     0EFF  1303               	bcf	3,6	;RP1=0, select bank0
  1647     0F00  00A5               	movwf	___lldiv@divisor+3
  1648     0F01  3000               	movlw	0
  1649     0F02  00A4               	movwf	___lldiv@divisor+2
  1650     0F03  3003               	movlw	3
  1651     0F04  00A3               	movwf	___lldiv@divisor+1
  1652     0F05  30E8               	movlw	232
  1653     0F06  00A2               	movwf	___lldiv@divisor
  1654     0F07  0851               	movf	main@num+3,w
  1655     0F08  00A9               	movwf	___lldiv@dividend+3
  1656     0F09  0850               	movf	main@num+2,w
  1657     0F0A  00A8               	movwf	___lldiv@dividend+2
  1658     0F0B  084F               	movf	main@num+1,w
  1659     0F0C  00A7               	movwf	___lldiv@dividend+1
  1660     0F0D  084E               	movf	main@num,w
  1661     0F0E  00A6               	movwf	___lldiv@dividend
  1662     0F0F  158A  22B1  158A   	fcall	___lldiv
  1663     0F12  1283               	bcf	3,5	;RP0=0, select bank0
  1664     0F13  1303               	bcf	3,6	;RP1=0, select bank0
  1665     0F14  0823               	movf	?___lldiv+1,w
  1666     0F15  00CC               	movwf	main@temp+1
  1667     0F16  0822               	movf	?___lldiv,w
  1668     0F17  00CB               	movwf	main@temp
  1669     0F18                     l2457:
  1670                           
  1671                           ;main.c: 277:                 num = num % 1000;
  1672     0F18  3000               	movlw	0
  1673     0F19  00A5               	movwf	___llmod@divisor+3
  1674     0F1A  3000               	movlw	0
  1675     0F1B  00A4               	movwf	___llmod@divisor+2
  1676     0F1C  3003               	movlw	3
  1677     0F1D  00A3               	movwf	___llmod@divisor+1
  1678     0F1E  30E8               	movlw	232
  1679     0F1F  00A2               	movwf	___llmod@divisor
  1680     0F20  0851               	movf	main@num+3,w
  1681     0F21  00A9               	movwf	___llmod@dividend+3
  1682     0F22  0850               	movf	main@num+2,w
  1683     0F23  00A8               	movwf	___llmod@dividend+2
  1684     0F24  084F               	movf	main@num+1,w
  1685     0F25  00A7               	movwf	___llmod@dividend+1
  1686     0F26  084E               	movf	main@num,w
  1687     0F27  00A6               	movwf	___llmod@dividend
  1688     0F28  158A  21FD  158A   	fcall	___llmod
  1689     0F2B  1283               	bcf	3,5	;RP0=0, select bank0
  1690     0F2C  1303               	bcf	3,6	;RP1=0, select bank0
  1691     0F2D  0825               	movf	?___llmod+3,w
  1692     0F2E  00D1               	movwf	main@num+3
  1693     0F2F  0824               	movf	?___llmod+2,w
  1694     0F30  00D0               	movwf	main@num+2
  1695     0F31  0823               	movf	?___llmod+1,w
  1696     0F32  00CF               	movwf	main@num+1
  1697     0F33  0822               	movf	?___llmod,w
  1698     0F34  00CE               	movwf	main@num
  1699     0F35                     l2459:
  1700                           
  1701                           ;main.c: 278:                 PORTB = 0x04;
  1702     0F35  3004               	movlw	4
  1703     0F36  0086               	movwf	6	;volatile
  1704     0F37                     l2461:
  1705                           
  1706                           ;main.c: 279:                 PORTD = seg_code[temp];
  1707     0F37  084B               	movf	main@temp,w
  1708     0F38  3E41               	addlw	(low (main@seg_code| 0))& (0+255)
  1709     0F39  0084               	movwf	4
  1710     0F3A  1383               	bcf	3,7	;select IRP bank0
  1711     0F3B  0800               	movf	0,w
  1712     0F3C  0088               	movwf	8	;volatile
  1713     0F3D                     l2463:
  1714                           
  1715                           ;main.c: 280:                 DELAY_ms1(1);
  1716     0F3D  3001               	movlw	1
  1717     0F3E  00A2               	movwf	DELAY_ms1@ms_Count
  1718     0F3F  3000               	movlw	0
  1719     0F40  00A3               	movwf	DELAY_ms1@ms_Count+1
  1720     0F41  118A  27CE  158A   	fcall	_DELAY_ms1
  1721     0F44                     l2465:
  1722                           
  1723                           ;main.c: 282:                 temp = num / 100;
  1724     0F44  3000               	movlw	0
  1725     0F45  1283               	bcf	3,5	;RP0=0, select bank0
  1726     0F46  1303               	bcf	3,6	;RP1=0, select bank0
  1727     0F47  00A5               	movwf	___lldiv@divisor+3
  1728     0F48  3000               	movlw	0
  1729     0F49  00A4               	movwf	___lldiv@divisor+2
  1730     0F4A  3000               	movlw	0
  1731     0F4B  00A3               	movwf	___lldiv@divisor+1
  1732     0F4C  3064               	movlw	100
  1733     0F4D  00A2               	movwf	___lldiv@divisor
  1734     0F4E  0851               	movf	main@num+3,w
  1735     0F4F  00A9               	movwf	___lldiv@dividend+3
  1736     0F50  0850               	movf	main@num+2,w
  1737     0F51  00A8               	movwf	___lldiv@dividend+2
  1738     0F52  084F               	movf	main@num+1,w
  1739     0F53  00A7               	movwf	___lldiv@dividend+1
  1740     0F54  084E               	movf	main@num,w
  1741     0F55  00A6               	movwf	___lldiv@dividend
  1742     0F56  158A  22B1  158A   	fcall	___lldiv
  1743     0F59  1283               	bcf	3,5	;RP0=0, select bank0
  1744     0F5A  1303               	bcf	3,6	;RP1=0, select bank0
  1745     0F5B  0823               	movf	?___lldiv+1,w
  1746     0F5C  00CC               	movwf	main@temp+1
  1747     0F5D  0822               	movf	?___lldiv,w
  1748     0F5E  00CB               	movwf	main@temp
  1749     0F5F                     l2467:
  1750                           
  1751                           ;main.c: 283:                 num = num % 100;
  1752     0F5F  3000               	movlw	0
  1753     0F60  00A5               	movwf	___llmod@divisor+3
  1754     0F61  3000               	movlw	0
  1755     0F62  00A4               	movwf	___llmod@divisor+2
  1756     0F63  3000               	movlw	0
  1757     0F64  00A3               	movwf	___llmod@divisor+1
  1758     0F65  3064               	movlw	100
  1759     0F66  00A2               	movwf	___llmod@divisor
  1760     0F67  0851               	movf	main@num+3,w
  1761     0F68  00A9               	movwf	___llmod@dividend+3
  1762     0F69  0850               	movf	main@num+2,w
  1763     0F6A  00A8               	movwf	___llmod@dividend+2
  1764     0F6B  084F               	movf	main@num+1,w
  1765     0F6C  00A7               	movwf	___llmod@dividend+1
  1766     0F6D  084E               	movf	main@num,w
  1767     0F6E  00A6               	movwf	___llmod@dividend
  1768     0F6F  158A  21FD  158A   	fcall	___llmod
  1769     0F72  1283               	bcf	3,5	;RP0=0, select bank0
  1770     0F73  1303               	bcf	3,6	;RP1=0, select bank0
  1771     0F74  0825               	movf	?___llmod+3,w
  1772     0F75  00D1               	movwf	main@num+3
  1773     0F76  0824               	movf	?___llmod+2,w
  1774     0F77  00D0               	movwf	main@num+2
  1775     0F78  0823               	movf	?___llmod+1,w
  1776     0F79  00CF               	movwf	main@num+1
  1777     0F7A  0822               	movf	?___llmod,w
  1778     0F7B  00CE               	movwf	main@num
  1779     0F7C                     l2469:
  1780                           
  1781                           ;main.c: 284:                 PORTB = 0x08;
  1782     0F7C  3008               	movlw	8
  1783     0F7D  0086               	movwf	6	;volatile
  1784     0F7E                     l2471:
  1785                           
  1786                           ;main.c: 285:                 PORTD = seg_code[temp];
  1787     0F7E  084B               	movf	main@temp,w
  1788     0F7F  3E41               	addlw	(low (main@seg_code| 0))& (0+255)
  1789     0F80  0084               	movwf	4
  1790     0F81  1383               	bcf	3,7	;select IRP bank0
  1791     0F82  0800               	movf	0,w
  1792     0F83  0088               	movwf	8	;volatile
  1793     0F84                     l2473:
  1794                           
  1795                           ;main.c: 286:                 DELAY_ms1(1);
  1796     0F84  3001               	movlw	1
  1797     0F85  00A2               	movwf	DELAY_ms1@ms_Count
  1798     0F86  3000               	movlw	0
  1799     0F87  00A3               	movwf	DELAY_ms1@ms_Count+1
  1800     0F88  118A  27CE  158A   	fcall	_DELAY_ms1
  1801     0F8B                     l2475:
  1802                           
  1803                           ;main.c: 288:                 temp = num / 10;
  1804     0F8B  3000               	movlw	0
  1805     0F8C  1283               	bcf	3,5	;RP0=0, select bank0
  1806     0F8D  1303               	bcf	3,6	;RP1=0, select bank0
  1807     0F8E  00A5               	movwf	___lldiv@divisor+3
  1808     0F8F  3000               	movlw	0
  1809     0F90  00A4               	movwf	___lldiv@divisor+2
  1810     0F91  3000               	movlw	0
  1811     0F92  00A3               	movwf	___lldiv@divisor+1
  1812     0F93  300A               	movlw	10
  1813     0F94  00A2               	movwf	___lldiv@divisor
  1814     0F95  0851               	movf	main@num+3,w
  1815     0F96  00A9               	movwf	___lldiv@dividend+3
  1816     0F97  0850               	movf	main@num+2,w
  1817     0F98  00A8               	movwf	___lldiv@dividend+2
  1818     0F99  084F               	movf	main@num+1,w
  1819     0F9A  00A7               	movwf	___lldiv@dividend+1
  1820     0F9B  084E               	movf	main@num,w
  1821     0F9C  00A6               	movwf	___lldiv@dividend
  1822     0F9D  158A  22B1  158A   	fcall	___lldiv
  1823     0FA0  1283               	bcf	3,5	;RP0=0, select bank0
  1824     0FA1  1303               	bcf	3,6	;RP1=0, select bank0
  1825     0FA2  0823               	movf	?___lldiv+1,w
  1826     0FA3  00CC               	movwf	main@temp+1
  1827     0FA4  0822               	movf	?___lldiv,w
  1828     0FA5  00CB               	movwf	main@temp
  1829     0FA6                     l2477:
  1830                           
  1831                           ;main.c: 289:                 PORTB = 0x10;
  1832     0FA6  3010               	movlw	16
  1833     0FA7  0086               	movwf	6	;volatile
  1834     0FA8                     l2479:
  1835                           
  1836                           ;main.c: 290:                 PORTD = seg_code[temp];
  1837     0FA8  084B               	movf	main@temp,w
  1838     0FA9  3E41               	addlw	(low (main@seg_code| 0))& (0+255)
  1839     0FAA  0084               	movwf	4
  1840     0FAB  1383               	bcf	3,7	;select IRP bank0
  1841     0FAC  0800               	movf	0,w
  1842     0FAD  0088               	movwf	8	;volatile
  1843     0FAE                     l2481:
  1844                           
  1845                           ;main.c: 291:                 DELAY_ms1(1);
  1846     0FAE  3001               	movlw	1
  1847     0FAF  00A2               	movwf	DELAY_ms1@ms_Count
  1848     0FB0  3000               	movlw	0
  1849     0FB1  00A3               	movwf	DELAY_ms1@ms_Count+1
  1850     0FB2  118A  27CE  158A   	fcall	_DELAY_ms1
  1851     0FB5                     l2483:
  1852                           
  1853                           ;main.c: 293:                 temp = num % 10;
  1854     0FB5  3000               	movlw	0
  1855     0FB6  1283               	bcf	3,5	;RP0=0, select bank0
  1856     0FB7  1303               	bcf	3,6	;RP1=0, select bank0
  1857     0FB8  00A5               	movwf	___llmod@divisor+3
  1858     0FB9  3000               	movlw	0
  1859     0FBA  00A4               	movwf	___llmod@divisor+2
  1860     0FBB  3000               	movlw	0
  1861     0FBC  00A3               	movwf	___llmod@divisor+1
  1862     0FBD  300A               	movlw	10
  1863     0FBE  00A2               	movwf	___llmod@divisor
  1864     0FBF  0851               	movf	main@num+3,w
  1865     0FC0  00A9               	movwf	___llmod@dividend+3
  1866     0FC1  0850               	movf	main@num+2,w
  1867     0FC2  00A8               	movwf	___llmod@dividend+2
  1868     0FC3  084F               	movf	main@num+1,w
  1869     0FC4  00A7               	movwf	___llmod@dividend+1
  1870     0FC5  084E               	movf	main@num,w
  1871     0FC6  00A6               	movwf	___llmod@dividend
  1872     0FC7  158A  21FD  158A   	fcall	___llmod
  1873     0FCA  1283               	bcf	3,5	;RP0=0, select bank0
  1874     0FCB  1303               	bcf	3,6	;RP1=0, select bank0
  1875     0FCC  0823               	movf	?___llmod+1,w
  1876     0FCD  00CC               	movwf	main@temp+1
  1877     0FCE  0822               	movf	?___llmod,w
  1878     0FCF  00CB               	movwf	main@temp
  1879     0FD0                     l2485:
  1880                           
  1881                           ;main.c: 294:                 PORTB = 0x20;
  1882     0FD0  3020               	movlw	32
  1883     0FD1  0086               	movwf	6	;volatile
  1884     0FD2                     l2487:
  1885                           
  1886                           ;main.c: 295:                 PORTD = seg_code[temp];
  1887     0FD2  084B               	movf	main@temp,w
  1888     0FD3  3E41               	addlw	(low (main@seg_code| 0))& (0+255)
  1889     0FD4  0084               	movwf	4
  1890     0FD5  1383               	bcf	3,7	;select IRP bank0
  1891     0FD6  0800               	movf	0,w
  1892     0FD7  0088               	movwf	8	;volatile
  1893     0FD8                     l2489:
  1894                           
  1895                           ;main.c: 296:                 DELAY_ms1(1);
  1896     0FD8  3001               	movlw	1
  1897     0FD9  00A2               	movwf	DELAY_ms1@ms_Count
  1898     0FDA  3000               	movlw	0
  1899     0FDB  00A3               	movwf	DELAY_ms1@ms_Count+1
  1900     0FDC  118A  27CE  158A   	fcall	_DELAY_ms1
  1901     0FDF                     l2491:
  1902                           
  1903                           ;main.c: 297:                 if(key=='3')
  1904     0FDF  3033               	movlw	51
  1905     0FE0  1283               	bcf	3,5	;RP0=0, select bank0
  1906     0FE1  1303               	bcf	3,6	;RP1=0, select bank0
  1907     0FE2  064D               	xorwf	main@key,w
  1908     0FE3  1D03               	btfss	3,2
  1909     0FE4  2FE6               	goto	u2801
  1910     0FE5  2FE7               	goto	u2800
  1911     0FE6                     u2801:
  1912     0FE6  2E7E               	goto	l2427
  1913     0FE7                     u2800:
  1914     0FE7                     l2493:
  1915                           
  1916                           ;main.c: 298:                 {;main.c: 299:                     INTCONbits.INTE=0;
  1917     0FE7  120B               	bcf	11,4	;volatile
  1918                           
  1919                           ;main.c: 300:                     TRISBbits.TRISB0 =0;
  1920     0FE8  1683               	bsf	3,5	;RP0=1, select bank1
  1921     0FE9  1303               	bcf	3,6	;RP1=0, select bank1
  1922     0FEA  1006               	bcf	6,0	;volatile
  1923     0FEB                     l2495:
  1924                           
  1925                           ;main.c: 301:                     cnt=0;
  1926     0FEB  3000               	movlw	0
  1927     0FEC  1283               	bcf	3,5	;RP0=0, select bank0
  1928     0FED  1303               	bcf	3,6	;RP1=0, select bank0
  1929     0FEE  00E1               	movwf	_cnt+3
  1930     0FEF  3000               	movlw	0
  1931     0FF0  00E0               	movwf	_cnt+2
  1932     0FF1  3000               	movlw	0
  1933     0FF2  00DF               	movwf	_cnt+1
  1934     0FF3  3000               	movlw	0
  1935     0FF4  00DE               	movwf	_cnt
  1936     0FF5                     l2497:
  1937                           
  1938                           ;main.c: 302:                     RE1=0;
  1939     0FF5  1089               	bcf	9,1	;volatile
  1940     0FF6                     l2499:
  1941                           
  1942                           ;main.c: 303:                     RE0=0;
  1943     0FF6  1009               	bcf	9,0	;volatile
  1944     0FF7                     l2501:
  1945                           
  1946                           ;main.c: 304:                     counter_mode1=0;
  1947     0FF7  01EB               	clrf	_counter_mode1
  1948     0FF8                     l2503:
  1949                           
  1950                           ;main.c: 305:                     counter_mode2=0;
  1951     0FF8  01EA               	clrf	_counter_mode2
  1952     0FF9                     l2505:	
  1953                           ;main.c: 306:                     break;
  1954                           
  1955                           
  1956                           ;main.c: 311:         if(counter_mode2==1)
  1957     0FF9  036A               	decf	_counter_mode2,w
  1958     0FFA  1D03               	btfss	3,2
  1959     0FFB  2FFE               	goto	u2811
  1960     0FFC  118A  2824         	goto	u2810
  1961     0FFE                     u2811:
  1962     0FFE  118A  29CD         	goto	l2587
  1963                           
  1964                           	psect	text1
  1965     09FD                     __ptext1:	
  1966 ;; *************** function ___llmod *****************
  1967 ;; Defined at:
  1968 ;;		line 5 in file "C:\Program Files\Microchip\xc8\v2.40\pic\sources\c90\common\llmod.c"
  1969 ;; Parameters:    Size  Location     Type
  1970 ;;  divisor         4    2[BANK0 ] unsigned long 
  1971 ;;  dividend        4    6[BANK0 ] unsigned long 
  1972 ;; Auto vars:     Size  Location     Type
  1973 ;;  counter         1   11[BANK0 ] unsigned char 
  1974 ;; Return value:  Size  Location     Type
  1975 ;;                  4    2[BANK0 ] unsigned long 
  1976 ;; Registers used:
  1977 ;;		wreg, status,2, status,0
  1978 ;; Tracked objects:
  1979 ;;		On entry : 0/0
  1980 ;;		On exit  : 0/0
  1981 ;;		Unchanged: 0/0
  1982 ;; Data sizes:     COMMON   BANK0   BANK1
  1983 ;;      Params:         0       8       0
  1984 ;;      Locals:         0       1       0
  1985 ;;      Temps:          0       1       0
  1986 ;;      Totals:         0      10       0
  1987 ;;Total ram usage:       10 bytes
  1988 ;; Hardware stack levels used: 1
  1989 ;; Hardware stack levels required when called: 1
  1990 ;; This function calls:
  1991 ;;		Nothing
  1992 ;; This function is called by:
  1993 ;;		_main
  1994 ;; This function uses a non-reentrant model
  1995 ;;
  1996                           
  1997     09FD                     ___llmod:	
  1998                           ;psect for function ___llmod
  1999                           
  2000     09FD                     l2271:	
  2001                           ;incstack = 0
  2002                           ; Regs used in ___llmod: [wreg+status,2+status,0]
  2003                           
  2004     09FD  1283               	bcf	3,5	;RP0=0, select bank0
  2005     09FE  1303               	bcf	3,6	;RP1=0, select bank0
  2006     09FF  0825               	movf	___llmod@divisor+3,w
  2007     0A00  0424               	iorwf	___llmod@divisor+2,w
  2008     0A01  0423               	iorwf	___llmod@divisor+1,w
  2009     0A02  0422               	iorwf	___llmod@divisor,w
  2010     0A03  1903               	skipnz
  2011     0A04  2A06               	goto	u2581
  2012     0A05  2A07               	goto	u2580
  2013     0A06                     u2581:
  2014     0A06  2A4A               	goto	l2287
  2015     0A07                     u2580:
  2016     0A07                     l2273:
  2017     0A07  01AB               	clrf	___llmod@counter
  2018     0A08  0AAB               	incf	___llmod@counter,f
  2019     0A09  2A17               	goto	l2277
  2020     0A0A                     l2275:
  2021     0A0A  3001               	movlw	1
  2022     0A0B  00AA               	movwf	??___llmod
  2023     0A0C                     u2595:
  2024     0A0C  1003               	clrc
  2025     0A0D  0DA2               	rlf	___llmod@divisor,f
  2026     0A0E  0DA3               	rlf	___llmod@divisor+1,f
  2027     0A0F  0DA4               	rlf	___llmod@divisor+2,f
  2028     0A10  0DA5               	rlf	___llmod@divisor+3,f
  2029     0A11  0BAA               	decfsz	??___llmod,f
  2030     0A12  2A0C               	goto	u2595
  2031     0A13  3001               	movlw	1
  2032     0A14  00AA               	movwf	??___llmod
  2033     0A15  082A               	movf	??___llmod,w
  2034     0A16  07AB               	addwf	___llmod@counter,f
  2035     0A17                     l2277:
  2036     0A17  1FA5               	btfss	___llmod@divisor+3,7
  2037     0A18  2A1A               	goto	u2601
  2038     0A19  2A1B               	goto	u2600
  2039     0A1A                     u2601:
  2040     0A1A  2A0A               	goto	l2275
  2041     0A1B                     u2600:
  2042     0A1B                     l2279:
  2043     0A1B  0825               	movf	___llmod@divisor+3,w
  2044     0A1C  0229               	subwf	___llmod@dividend+3,w
  2045     0A1D  1D03               	skipz
  2046     0A1E  2A29               	goto	u2615
  2047     0A1F  0824               	movf	___llmod@divisor+2,w
  2048     0A20  0228               	subwf	___llmod@dividend+2,w
  2049     0A21  1D03               	skipz
  2050     0A22  2A29               	goto	u2615
  2051     0A23  0823               	movf	___llmod@divisor+1,w
  2052     0A24  0227               	subwf	___llmod@dividend+1,w
  2053     0A25  1D03               	skipz
  2054     0A26  2A29               	goto	u2615
  2055     0A27  0822               	movf	___llmod@divisor,w
  2056     0A28  0226               	subwf	___llmod@dividend,w
  2057     0A29                     u2615:
  2058     0A29  1C03               	skipc
  2059     0A2A  2A2C               	goto	u2611
  2060     0A2B  2A2D               	goto	u2610
  2061     0A2C                     u2611:
  2062     0A2C  2A3B               	goto	l2283
  2063     0A2D                     u2610:
  2064     0A2D                     l2281:
  2065     0A2D  0822               	movf	___llmod@divisor,w
  2066     0A2E  02A6               	subwf	___llmod@dividend,f
  2067     0A2F  0823               	movf	___llmod@divisor+1,w
  2068     0A30  1C03               	skipc
  2069     0A31  0F23               	incfsz	___llmod@divisor+1,w
  2070     0A32  02A7               	subwf	___llmod@dividend+1,f
  2071     0A33  0824               	movf	___llmod@divisor+2,w
  2072     0A34  1C03               	skipc
  2073     0A35  0F24               	incfsz	___llmod@divisor+2,w
  2074     0A36  02A8               	subwf	___llmod@dividend+2,f
  2075     0A37  0825               	movf	___llmod@divisor+3,w
  2076     0A38  1C03               	skipc
  2077     0A39  0F25               	incfsz	___llmod@divisor+3,w
  2078     0A3A  02A9               	subwf	___llmod@dividend+3,f
  2079     0A3B                     l2283:
  2080     0A3B  3001               	movlw	1
  2081     0A3C                     u2625:
  2082     0A3C  1003               	clrc
  2083     0A3D  0CA5               	rrf	___llmod@divisor+3,f
  2084     0A3E  0CA4               	rrf	___llmod@divisor+2,f
  2085     0A3F  0CA3               	rrf	___llmod@divisor+1,f
  2086     0A40  0CA2               	rrf	___llmod@divisor,f
  2087     0A41  3EFF               	addlw	-1
  2088     0A42  1D03               	skipz
  2089     0A43  2A3C               	goto	u2625
  2090     0A44                     l2285:
  2091     0A44  3001               	movlw	1
  2092     0A45  02AB               	subwf	___llmod@counter,f
  2093     0A46  1D03               	btfss	3,2
  2094     0A47  2A49               	goto	u2631
  2095     0A48  2A4A               	goto	u2630
  2096     0A49                     u2631:
  2097     0A49  2A1B               	goto	l2279
  2098     0A4A                     u2630:
  2099     0A4A                     l2287:
  2100     0A4A  0829               	movf	___llmod@dividend+3,w
  2101     0A4B  00A5               	movwf	?___llmod+3
  2102     0A4C  0828               	movf	___llmod@dividend+2,w
  2103     0A4D  00A4               	movwf	?___llmod+2
  2104     0A4E  0827               	movf	___llmod@dividend+1,w
  2105     0A4F  00A3               	movwf	?___llmod+1
  2106     0A50  0826               	movf	___llmod@dividend,w
  2107     0A51  00A2               	movwf	?___llmod
  2108     0A52                     l711:
  2109     0A52  0008               	return
  2110     0A53                     __end_of___llmod:
  2111                           
  2112                           	psect	text2
  2113     07F5                     __ptext2:	
  2114 ;; *************** function _UART_TxChar *****************
  2115 ;; Defined at:
  2116 ;;		line 107 in file "uart.c"
  2117 ;; Parameters:    Size  Location     Type
  2118 ;;  v_uartData_u    1    wreg     unsigned char 
  2119 ;; Auto vars:     Size  Location     Type
  2120 ;;  v_uartData_u    1    2[BANK0 ] unsigned char 
  2121 ;; Return value:  Size  Location     Type
  2122 ;;                  1    wreg      void 
  2123 ;; Registers used:
  2124 ;;		wreg
  2125 ;; Tracked objects:
  2126 ;;		On entry : 0/0
  2127 ;;		On exit  : 0/0
  2128 ;;		Unchanged: 0/0
  2129 ;; Data sizes:     COMMON   BANK0   BANK1
  2130 ;;      Params:         0       0       0
  2131 ;;      Locals:         0       1       0
  2132 ;;      Temps:          0       0       0
  2133 ;;      Totals:         0       1       0
  2134 ;;Total ram usage:        1 bytes
  2135 ;; Hardware stack levels used: 1
  2136 ;; Hardware stack levels required when called: 1
  2137 ;; This function calls:
  2138 ;;		Nothing
  2139 ;; This function is called by:
  2140 ;;		_main
  2141 ;;		_UART_TxNumber
  2142 ;; This function uses a non-reentrant model
  2143 ;;
  2144                           
  2145     07F5                     _UART_TxChar:	
  2146                           ;psect for function _UART_TxChar
  2147                           
  2148                           
  2149                           ;incstack = 0
  2150                           ; Regs used in _UART_TxChar: [wreg]
  2151                           ;UART_TxChar@v_uartData_u8 stored from wreg
  2152     07F5  1283               	bcf	3,5	;RP0=0, select bank0
  2153     07F6  1303               	bcf	3,6	;RP1=0, select bank0
  2154     07F7  00A2               	movwf	UART_TxChar@v_uartData_u8
  2155     07F8                     l2267:
  2156     07F8                     l374:	
  2157                           ;uart.c: 107: void UART_TxChar(char v_uartData_u8);uart.c: 108: {;uart.c: 109:     while
      +                          (TXIF==0);
  2158                           
  2159     07F8  1E0C               	btfss	12,4	;volatile
  2160     07F9  2FFB               	goto	u2571
  2161     07FA  2FFC               	goto	u2570
  2162     07FB                     u2571:
  2163     07FB  2FF8               	goto	l374
  2164     07FC                     u2570:
  2165     07FC                     l376:
  2166                           
  2167                           ;uart.c: 110:     TXIF=0;
  2168     07FC  120C               	bcf	12,4	;volatile
  2169     07FD                     l2269:
  2170                           
  2171                           ;uart.c: 111:     TXREG=v_uartData_u8;
  2172     07FD  0822               	movf	UART_TxChar@v_uartData_u8,w
  2173     07FE  0099               	movwf	25	;volatile
  2174     07FF                     l377:
  2175     07FF  0008               	return
  2176     0800                     __end_of_UART_TxChar:
  2177                           
  2178                           	psect	text3
  2179     0959                     __ptext3:	
  2180 ;; *************** function _UART_Init *****************
  2181 ;; Defined at:
  2182 ;;		line 28 in file "uart.c"
  2183 ;; Parameters:    Size  Location     Type
  2184 ;;  v_baudRate_u    4   25[BANK0 ] unsigned long 
  2185 ;; Auto vars:     Size  Location     Type
  2186 ;;		None
  2187 ;; Return value:  Size  Location     Type
  2188 ;;                  1    wreg      void 
  2189 ;; Registers used:
  2190 ;;		wreg, status,2, status,0, pclath, cstack
  2191 ;; Tracked objects:
  2192 ;;		On entry : 0/0
  2193 ;;		On exit  : 0/0
  2194 ;;		Unchanged: 0/0
  2195 ;; Data sizes:     COMMON   BANK0   BANK1
  2196 ;;      Params:         0       4       0
  2197 ;;      Locals:         0       0       0
  2198 ;;      Temps:          0       0       0
  2199 ;;      Totals:         0       4       0
  2200 ;;Total ram usage:        4 bytes
  2201 ;; Hardware stack levels used: 1
  2202 ;; Hardware stack levels required when called: 3
  2203 ;; This function calls:
  2204 ;;		_UART_SetBaudRate
  2205 ;; This function is called by:
  2206 ;;		_main
  2207 ;; This function uses a non-reentrant model
  2208 ;;
  2209                           
  2210     0959                     _UART_Init:	
  2211                           ;psect for function _UART_Init
  2212                           
  2213     0959                     l2209:	
  2214                           ;incstack = 0
  2215                           ; Regs used in _UART_Init: [wreg+status,2+status,0+pclath+cstack]
  2216                           
  2217                           
  2218                           ;uart.c: 28: void UART_Init(uint32_t v_baudRate_u32);uart.c: 29: {;uart.c: 30:     TRISC
      +                          =0x80;
  2219     0959  3080               	movlw	128
  2220     095A  1683               	bsf	3,5	;RP0=1, select bank1
  2221     095B  1303               	bcf	3,6	;RP1=0, select bank1
  2222     095C  0087               	movwf	7	;volatile
  2223                           
  2224                           ;uart.c: 31:     TXSTA=0x20;
  2225     095D  3020               	movlw	32
  2226     095E  0098               	movwf	24	;volatile
  2227                           
  2228                           ;uart.c: 32:     RCSTA=0x90;
  2229     095F  3090               	movlw	144
  2230     0960  1283               	bcf	3,5	;RP0=0, select bank0
  2231     0961  1303               	bcf	3,6	;RP1=0, select bank0
  2232     0962  0098               	movwf	24	;volatile
  2233     0963                     l2211:
  2234                           
  2235                           ;uart.c: 33:     UART_SetBaudRate(v_baudRate_u32);
  2236     0963  083C               	movf	UART_Init@v_baudRate_u32+3,w
  2237     0964  00B3               	movwf	UART_SetBaudRate@v_baudRate_u32+3
  2238     0965  083B               	movf	UART_Init@v_baudRate_u32+2,w
  2239     0966  00B2               	movwf	UART_SetBaudRate@v_baudRate_u32+2
  2240     0967  083A               	movf	UART_Init@v_baudRate_u32+1,w
  2241     0968  00B1               	movwf	UART_SetBaudRate@v_baudRate_u32+1
  2242     0969  0839               	movf	UART_Init@v_baudRate_u32,w
  2243     096A  00B0               	movwf	UART_SetBaudRate@v_baudRate_u32
  2244     096B  158A  2253  158A   	fcall	_UART_SetBaudRate
  2245     096E                     l360:
  2246     096E  0008               	return
  2247     096F                     __end_of_UART_Init:
  2248                           
  2249                           	psect	text4
  2250     0A53                     __ptext4:	
  2251 ;; *************** function _UART_SetBaudRate *****************
  2252 ;; Defined at:
  2253 ;;		line 53 in file "uart.c"
  2254 ;; Parameters:    Size  Location     Type
  2255 ;;  v_baudRate_u    4   16[BANK0 ] unsigned long 
  2256 ;; Auto vars:     Size  Location     Type
  2257 ;;  RegValue        1   24[BANK0 ] unsigned char 
  2258 ;; Return value:  Size  Location     Type
  2259 ;;                  1    wreg      void 
  2260 ;; Registers used:
  2261 ;;		wreg, status,2, status,0, pclath, cstack
  2262 ;; Tracked objects:
  2263 ;;		On entry : 0/0
  2264 ;;		On exit  : 0/0
  2265 ;;		Unchanged: 0/0
  2266 ;; Data sizes:     COMMON   BANK0   BANK1
  2267 ;;      Params:         0       4       0
  2268 ;;      Locals:         0       1       0
  2269 ;;      Temps:          0       4       0
  2270 ;;      Totals:         0       9       0
  2271 ;;Total ram usage:        9 bytes
  2272 ;; Hardware stack levels used: 1
  2273 ;; Hardware stack levels required when called: 2
  2274 ;; This function calls:
  2275 ;;		___lldiv
  2276 ;; This function is called by:
  2277 ;;		_UART_Init
  2278 ;; This function uses a non-reentrant model
  2279 ;;
  2280                           
  2281     0A53                     _UART_SetBaudRate:	
  2282                           ;psect for function _UART_SetBaudRate
  2283                           
  2284     0A53                     l2163:	
  2285                           ;incstack = 0
  2286                           ; Regs used in _UART_SetBaudRate: [wreg+status,2+status,0+pclath+cstack]
  2287                           
  2288                           
  2289                           ;uart.c: 53: void UART_SetBaudRate(uint32_t v_baudRate_u32);uart.c: 54: {;uart.c: 55:   
      +                            uint8_t RegValue;;uart.c: 57:     if((v_baudRate_u32 >= 2400) && (v_baudRate_u32<=1152
      +                          00UL))
  2290     0A53  1283               	bcf	3,5	;RP0=0, select bank0
  2291     0A54  1303               	bcf	3,6	;RP1=0, select bank0
  2292     0A55  0833               	movf	UART_SetBaudRate@v_baudRate_u32+3,w
  2293     0A56  1D03               	btfss	3,2
  2294     0A57  2A67               	goto	u2430
  2295     0A58  0832               	movf	UART_SetBaudRate@v_baudRate_u32+2,w
  2296     0A59  1D03               	btfss	3,2
  2297     0A5A  2A67               	goto	u2430
  2298     0A5B  3009               	movlw	9
  2299     0A5C  0231               	subwf	UART_SetBaudRate@v_baudRate_u32+1,w
  2300     0A5D  1D03               	skipz
  2301     0A5E  2A63               	goto	u2433
  2302     0A5F  3060               	movlw	96
  2303     0A60  0230               	subwf	UART_SetBaudRate@v_baudRate_u32,w
  2304     0A61  1D03               	skipz
  2305     0A62  2A63               	goto	u2433
  2306     0A63                     u2433:
  2307     0A63  1C03               	btfss	3,0
  2308     0A64  2A66               	goto	u2431
  2309     0A65  2A67               	goto	u2430
  2310     0A66                     u2431:
  2311     0A66  2AA8               	goto	l2169
  2312     0A67                     u2430:
  2313     0A67                     l2165:
  2314     0A67  1283               	bcf	3,5	;RP0=0, select bank0
  2315     0A68  1303               	bcf	3,6	;RP1=0, select bank0
  2316     0A69  0833               	movf	UART_SetBaudRate@v_baudRate_u32+3,w
  2317     0A6A  1D03               	btfss	3,2
  2318     0A6B  2A7B               	goto	u2441
  2319     0A6C  3001               	movlw	1
  2320     0A6D  0232               	subwf	UART_SetBaudRate@v_baudRate_u32+2,w
  2321     0A6E  1D03               	skipz
  2322     0A6F  2A78               	goto	u2443
  2323     0A70  30C2               	movlw	194
  2324     0A71  0231               	subwf	UART_SetBaudRate@v_baudRate_u32+1,w
  2325     0A72  1D03               	skipz
  2326     0A73  2A78               	goto	u2443
  2327     0A74  3001               	movlw	1
  2328     0A75  0230               	subwf	UART_SetBaudRate@v_baudRate_u32,w
  2329     0A76  1D03               	skipz
  2330     0A77  2A78               	goto	u2443
  2331     0A78                     u2443:
  2332     0A78  1803               	btfsc	3,0
  2333     0A79  2A7B               	goto	u2441
  2334     0A7A  2A7C               	goto	u2440
  2335     0A7B                     u2441:
  2336     0A7B  2AA8               	goto	l2169
  2337     0A7C                     u2440:
  2338     0A7C                     l2167:
  2339                           
  2340                           ;uart.c: 58:     {;uart.c: 61:         RegValue = (uint8_t)(uint32_t)((8000000UL / (64*(
      +                          uint32_t)v_baudRate_u32)) - 1);
  2341     0A7C  1283               	bcf	3,5	;RP0=0, select bank0
  2342     0A7D  1303               	bcf	3,6	;RP1=0, select bank0
  2343     0A7E  0830               	movf	UART_SetBaudRate@v_baudRate_u32,w
  2344     0A7F  00B4               	movwf	??_UART_SetBaudRate
  2345     0A80  0831               	movf	UART_SetBaudRate@v_baudRate_u32+1,w
  2346     0A81  00B5               	movwf	??_UART_SetBaudRate+1
  2347     0A82  0832               	movf	UART_SetBaudRate@v_baudRate_u32+2,w
  2348     0A83  00B6               	movwf	??_UART_SetBaudRate+2
  2349     0A84  0833               	movf	UART_SetBaudRate@v_baudRate_u32+3,w
  2350     0A85  00B7               	movwf	??_UART_SetBaudRate+3
  2351     0A86  3006               	movlw	6
  2352     0A87                     u2455:
  2353     0A87  1003               	clrc
  2354     0A88  0DB4               	rlf	??_UART_SetBaudRate,f
  2355     0A89  0DB5               	rlf	??_UART_SetBaudRate+1,f
  2356     0A8A  0DB6               	rlf	??_UART_SetBaudRate+2,f
  2357     0A8B  0DB7               	rlf	??_UART_SetBaudRate+3,f
  2358     0A8C                     u2450:
  2359     0A8C  3EFF               	addlw	-1
  2360     0A8D  1D03               	skipz
  2361     0A8E  2A87               	goto	u2455
  2362     0A8F  0837               	movf	??_UART_SetBaudRate+3,w
  2363     0A90  00A5               	movwf	___lldiv@divisor+3
  2364     0A91  0836               	movf	??_UART_SetBaudRate+2,w
  2365     0A92  00A4               	movwf	___lldiv@divisor+2
  2366     0A93  0835               	movf	??_UART_SetBaudRate+1,w
  2367     0A94  00A3               	movwf	___lldiv@divisor+1
  2368     0A95  0834               	movf	??_UART_SetBaudRate,w
  2369     0A96  00A2               	movwf	___lldiv@divisor
  2370     0A97  3000               	movlw	0
  2371     0A98  00A9               	movwf	___lldiv@dividend+3
  2372     0A99  307A               	movlw	122
  2373     0A9A  00A8               	movwf	___lldiv@dividend+2
  2374     0A9B  3012               	movlw	18
  2375     0A9C  00A7               	movwf	___lldiv@dividend+1
  2376     0A9D  3000               	movlw	0
  2377     0A9E  00A6               	movwf	___lldiv@dividend
  2378     0A9F  158A  22B1  158A   	fcall	___lldiv
  2379     0AA2  1283               	bcf	3,5	;RP0=0, select bank0
  2380     0AA3  1303               	bcf	3,6	;RP1=0, select bank0
  2381     0AA4  0822               	movf	?___lldiv,w
  2382     0AA5  3EFF               	addlw	255
  2383     0AA6  00B8               	movwf	UART_SetBaudRate@RegValue
  2384                           
  2385                           ;uart.c: 62:     }
  2386     0AA7  2AAC               	goto	l364
  2387     0AA8                     l2169:
  2388                           
  2389                           ;uart.c: 64:     {;uart.c: 66:         RegValue = (uint8_t)(uint32_t)((8000000UL / (64*(
      +                          uint32_t)9600)) - 1);
  2390     0AA8  300C               	movlw	12
  2391     0AA9  1283               	bcf	3,5	;RP0=0, select bank0
  2392     0AAA  1303               	bcf	3,6	;RP1=0, select bank0
  2393     0AAB  00B8               	movwf	UART_SetBaudRate@RegValue
  2394     0AAC                     l364:	
  2395                           ;uart.c: 67:     }
  2396                           
  2397                           
  2398                           ;uart.c: 69:     SPBRG = RegValue;
  2399     0AAC  0838               	movf	UART_SetBaudRate@RegValue,w
  2400     0AAD  1683               	bsf	3,5	;RP0=1, select bank1
  2401     0AAE  1303               	bcf	3,6	;RP1=0, select bank1
  2402     0AAF  0099               	movwf	25	;volatile
  2403     0AB0                     l365:
  2404     0AB0  0008               	return
  2405     0AB1                     __end_of_UART_SetBaudRate:
  2406                           
  2407                           	psect	text5
  2408     0AB1                     __ptext5:	
  2409 ;; *************** function ___lldiv *****************
  2410 ;; Defined at:
  2411 ;;		line 5 in file "C:\Program Files\Microchip\xc8\v2.40\pic\sources\c90\common\__lldiv.c"
  2412 ;; Parameters:    Size  Location     Type
  2413 ;;  divisor         4    2[BANK0 ] unsigned long 
  2414 ;;  dividend        4    6[BANK0 ] unsigned long 
  2415 ;; Auto vars:     Size  Location     Type
  2416 ;;  quotient        4   11[BANK0 ] unsigned long 
  2417 ;;  counter         1   15[BANK0 ] unsigned char 
  2418 ;; Return value:  Size  Location     Type
  2419 ;;                  4    2[BANK0 ] unsigned long 
  2420 ;; Registers used:
  2421 ;;		wreg, status,2, status,0
  2422 ;; Tracked objects:
  2423 ;;		On entry : 0/0
  2424 ;;		On exit  : 0/0
  2425 ;;		Unchanged: 0/0
  2426 ;; Data sizes:     COMMON   BANK0   BANK1
  2427 ;;      Params:         0       8       0
  2428 ;;      Locals:         0       5       0
  2429 ;;      Temps:          0       1       0
  2430 ;;      Totals:         0      14       0
  2431 ;;Total ram usage:       14 bytes
  2432 ;; Hardware stack levels used: 1
  2433 ;; Hardware stack levels required when called: 1
  2434 ;; This function calls:
  2435 ;;		Nothing
  2436 ;; This function is called by:
  2437 ;;		_main
  2438 ;;		_UART_SetBaudRate
  2439 ;;		_UART_TxNumber
  2440 ;; This function uses a non-reentrant model
  2441 ;;
  2442                           
  2443     0AB1                     ___lldiv:	
  2444                           ;psect for function ___lldiv
  2445                           
  2446     0AB1                     l2027:	
  2447                           ;incstack = 0
  2448                           ; Regs used in ___lldiv: [wreg+status,2+status,0]
  2449                           
  2450     0AB1  3000               	movlw	0
  2451     0AB2  1283               	bcf	3,5	;RP0=0, select bank0
  2452     0AB3  1303               	bcf	3,6	;RP1=0, select bank0
  2453     0AB4  00AE               	movwf	___lldiv@quotient+3
  2454     0AB5  3000               	movlw	0
  2455     0AB6  00AD               	movwf	___lldiv@quotient+2
  2456     0AB7  3000               	movlw	0
  2457     0AB8  00AC               	movwf	___lldiv@quotient+1
  2458     0AB9  3000               	movlw	0
  2459     0ABA  00AB               	movwf	___lldiv@quotient
  2460     0ABB  0825               	movf	___lldiv@divisor+3,w
  2461     0ABC  0424               	iorwf	___lldiv@divisor+2,w
  2462     0ABD  0423               	iorwf	___lldiv@divisor+1,w
  2463     0ABE  0422               	iorwf	___lldiv@divisor,w
  2464     0ABF  1903               	skipnz
  2465     0AC0  2AC2               	goto	u1881
  2466     0AC1  2AC3               	goto	u1880
  2467     0AC2                     u1881:
  2468     0AC2  2B10               	goto	l2047
  2469     0AC3                     u1880:
  2470     0AC3                     l2029:
  2471     0AC3  01AF               	clrf	___lldiv@counter
  2472     0AC4  0AAF               	incf	___lldiv@counter,f
  2473     0AC5  2AD3               	goto	l2033
  2474     0AC6                     l2031:
  2475     0AC6  3001               	movlw	1
  2476     0AC7  00AA               	movwf	??___lldiv
  2477     0AC8                     u1895:
  2478     0AC8  1003               	clrc
  2479     0AC9  0DA2               	rlf	___lldiv@divisor,f
  2480     0ACA  0DA3               	rlf	___lldiv@divisor+1,f
  2481     0ACB  0DA4               	rlf	___lldiv@divisor+2,f
  2482     0ACC  0DA5               	rlf	___lldiv@divisor+3,f
  2483     0ACD  0BAA               	decfsz	??___lldiv,f
  2484     0ACE  2AC8               	goto	u1895
  2485     0ACF  3001               	movlw	1
  2486     0AD0  00AA               	movwf	??___lldiv
  2487     0AD1  082A               	movf	??___lldiv,w
  2488     0AD2  07AF               	addwf	___lldiv@counter,f
  2489     0AD3                     l2033:
  2490     0AD3  1FA5               	btfss	___lldiv@divisor+3,7
  2491     0AD4  2AD6               	goto	u1901
  2492     0AD5  2AD7               	goto	u1900
  2493     0AD6                     u1901:
  2494     0AD6  2AC6               	goto	l2031
  2495     0AD7                     u1900:
  2496     0AD7                     l2035:
  2497     0AD7  3001               	movlw	1
  2498     0AD8  00AA               	movwf	??___lldiv
  2499     0AD9                     u1915:
  2500     0AD9  1003               	clrc
  2501     0ADA  0DAB               	rlf	___lldiv@quotient,f
  2502     0ADB  0DAC               	rlf	___lldiv@quotient+1,f
  2503     0ADC  0DAD               	rlf	___lldiv@quotient+2,f
  2504     0ADD  0DAE               	rlf	___lldiv@quotient+3,f
  2505     0ADE  0BAA               	decfsz	??___lldiv,f
  2506     0ADF  2AD9               	goto	u1915
  2507     0AE0                     l2037:
  2508     0AE0  0825               	movf	___lldiv@divisor+3,w
  2509     0AE1  0229               	subwf	___lldiv@dividend+3,w
  2510     0AE2  1D03               	skipz
  2511     0AE3  2AEE               	goto	u1925
  2512     0AE4  0824               	movf	___lldiv@divisor+2,w
  2513     0AE5  0228               	subwf	___lldiv@dividend+2,w
  2514     0AE6  1D03               	skipz
  2515     0AE7  2AEE               	goto	u1925
  2516     0AE8  0823               	movf	___lldiv@divisor+1,w
  2517     0AE9  0227               	subwf	___lldiv@dividend+1,w
  2518     0AEA  1D03               	skipz
  2519     0AEB  2AEE               	goto	u1925
  2520     0AEC  0822               	movf	___lldiv@divisor,w
  2521     0AED  0226               	subwf	___lldiv@dividend,w
  2522     0AEE                     u1925:
  2523     0AEE  1C03               	skipc
  2524     0AEF  2AF1               	goto	u1921
  2525     0AF0  2AF2               	goto	u1920
  2526     0AF1                     u1921:
  2527     0AF1  2B01               	goto	l2043
  2528     0AF2                     u1920:
  2529     0AF2                     l2039:
  2530     0AF2  0822               	movf	___lldiv@divisor,w
  2531     0AF3  02A6               	subwf	___lldiv@dividend,f
  2532     0AF4  0823               	movf	___lldiv@divisor+1,w
  2533     0AF5  1C03               	skipc
  2534     0AF6  0F23               	incfsz	___lldiv@divisor+1,w
  2535     0AF7  02A7               	subwf	___lldiv@dividend+1,f
  2536     0AF8  0824               	movf	___lldiv@divisor+2,w
  2537     0AF9  1C03               	skipc
  2538     0AFA  0F24               	incfsz	___lldiv@divisor+2,w
  2539     0AFB  02A8               	subwf	___lldiv@dividend+2,f
  2540     0AFC  0825               	movf	___lldiv@divisor+3,w
  2541     0AFD  1C03               	skipc
  2542     0AFE  0F25               	incfsz	___lldiv@divisor+3,w
  2543     0AFF  02A9               	subwf	___lldiv@dividend+3,f
  2544     0B00                     l2041:
  2545     0B00  142B               	bsf	___lldiv@quotient,0
  2546     0B01                     l2043:
  2547     0B01  3001               	movlw	1
  2548     0B02                     u1935:
  2549     0B02  1003               	clrc
  2550     0B03  0CA5               	rrf	___lldiv@divisor+3,f
  2551     0B04  0CA4               	rrf	___lldiv@divisor+2,f
  2552     0B05  0CA3               	rrf	___lldiv@divisor+1,f
  2553     0B06  0CA2               	rrf	___lldiv@divisor,f
  2554     0B07  3EFF               	addlw	-1
  2555     0B08  1D03               	skipz
  2556     0B09  2B02               	goto	u1935
  2557     0B0A                     l2045:
  2558     0B0A  3001               	movlw	1
  2559     0B0B  02AF               	subwf	___lldiv@counter,f
  2560     0B0C  1D03               	btfss	3,2
  2561     0B0D  2B0F               	goto	u1941
  2562     0B0E  2B10               	goto	u1940
  2563     0B0F                     u1941:
  2564     0B0F  2AD7               	goto	l2035
  2565     0B10                     u1940:
  2566     0B10                     l2047:
  2567     0B10  082E               	movf	___lldiv@quotient+3,w
  2568     0B11  00A5               	movwf	?___lldiv+3
  2569     0B12  082D               	movf	___lldiv@quotient+2,w
  2570     0B13  00A4               	movwf	?___lldiv+2
  2571     0B14  082C               	movf	___lldiv@quotient+1,w
  2572     0B15  00A3               	movwf	?___lldiv+1
  2573     0B16  082B               	movf	___lldiv@quotient,w
  2574     0B17  00A2               	movwf	?___lldiv
  2575     0B18                     l525:
  2576     0B18  0008               	return
  2577     0B19                     __end_of___lldiv:
  2578                           
  2579                           	psect	text6
  2580     096F                     __ptext6:	
  2581 ;; *************** function _KEYPAD_Init *****************
  2582 ;; Defined at:
  2583 ;;		line 80 in file "keypad.c"
  2584 ;; Parameters:    Size  Location     Type
  2585 ;;  row_0           1    wreg     enum E23
  2586 ;;  row_1           1    7[BANK0 ] enum E23
  2587 ;;  row_2           1    8[BANK0 ] enum E23
  2588 ;;  row_3           1    9[BANK0 ] enum E23
  2589 ;;  col_0           1   10[BANK0 ] enum E23
  2590 ;;  col_1           1   11[BANK0 ] enum E23
  2591 ;;  col_2           1   12[BANK0 ] enum E23
  2592 ;;  col_3           1   13[BANK0 ] enum E23
  2593 ;; Auto vars:     Size  Location     Type
  2594 ;;  row_0           1   15[BANK0 ] enum E23
  2595 ;;  i               1   16[BANK0 ] unsigned char 
  2596 ;; Return value:  Size  Location     Type
  2597 ;;                  1    wreg      void 
  2598 ;; Registers used:
  2599 ;;		wreg, fsr0l, fsr0h, status,2, status,0, pclath, cstack
  2600 ;; Tracked objects:
  2601 ;;		On entry : 0/0
  2602 ;;		On exit  : 0/0
  2603 ;;		Unchanged: 0/0
  2604 ;; Data sizes:     COMMON   BANK0   BANK1
  2605 ;;      Params:         0       7       0
  2606 ;;      Locals:         0       2       0
  2607 ;;      Temps:          0       1       0
  2608 ;;      Totals:         0      10       0
  2609 ;;Total ram usage:       10 bytes
  2610 ;; Hardware stack levels used: 1
  2611 ;; Hardware stack levels required when called: 2
  2612 ;; This function calls:
  2613 ;;		_GPIO_PinDirection
  2614 ;; This function is called by:
  2615 ;;		_main
  2616 ;; This function uses a non-reentrant model
  2617 ;;
  2618                           
  2619     096F                     _KEYPAD_Init:	
  2620                           ;psect for function _KEYPAD_Init
  2621                           
  2622                           
  2623                           ;incstack = 0
  2624                           ; Regs used in _KEYPAD_Init: [wreg-fsr0h+status,2+status,0+pclath+cstack]
  2625                           ;KEYPAD_Init@row_0 stored from wreg
  2626     096F  1283               	bcf	3,5	;RP0=0, select bank0
  2627     0970  1303               	bcf	3,6	;RP1=0, select bank0
  2628     0971  00AF               	movwf	KEYPAD_Init@row_0
  2629     0972                     l2183:
  2630                           
  2631                           ;keypad.c: 81:         gpioPins_et row_0,;keypad.c: 82:         gpioPins_et row_1,;keypa
      +                          d.c: 83:         gpioPins_et row_2,;keypad.c: 84:         gpioPins_et row_3,;keypad.c: 8
      +                          5:         gpioPins_et col_0,;keypad.c: 86:         gpioPins_et col_1,;keypad.c: 87:    
      +                               gpioPins_et col_2,;keypad.c: 88:         gpioPins_et col_3 );keypad.c: 89: {;keypad
      +                          .c: 90:     uint8_t i;;keypad.c: 92:     A_RowsPins_U8[0] = row_0;
  2632     0972  082F               	movf	KEYPAD_Init@row_0,w
  2633     0973  00D6               	movwf	_A_RowsPins_U8
  2634                           
  2635                           ;keypad.c: 93:     A_RowsPins_U8[1] = row_1;
  2636     0974  0827               	movf	KEYPAD_Init@row_1,w
  2637     0975  00D7               	movwf	_A_RowsPins_U8+1
  2638                           
  2639                           ;keypad.c: 94:     A_RowsPins_U8[2] = row_2;
  2640     0976  0828               	movf	KEYPAD_Init@row_2,w
  2641     0977  00D8               	movwf	_A_RowsPins_U8+2
  2642                           
  2643                           ;keypad.c: 95:     A_RowsPins_U8[3] = row_3;
  2644     0978  0829               	movf	KEYPAD_Init@row_3,w
  2645     0979  00D9               	movwf	_A_RowsPins_U8+3
  2646                           
  2647                           ;keypad.c: 97:     A_ColsPins_U8[0] = col_0;
  2648     097A  082A               	movf	KEYPAD_Init@col_0,w
  2649     097B  00D2               	movwf	_A_ColsPins_U8
  2650                           
  2651                           ;keypad.c: 98:     A_ColsPins_U8[1] = col_1;
  2652     097C  082B               	movf	KEYPAD_Init@col_1,w
  2653     097D  00D3               	movwf	_A_ColsPins_U8+1
  2654                           
  2655                           ;keypad.c: 99:     A_ColsPins_U8[2] = col_2;
  2656     097E  082C               	movf	KEYPAD_Init@col_2,w
  2657     097F  00D4               	movwf	_A_ColsPins_U8+2
  2658                           
  2659                           ;keypad.c: 100:     A_ColsPins_U8[3] = col_3;
  2660     0980  082D               	movf	KEYPAD_Init@col_3,w
  2661     0981  00D5               	movwf	_A_ColsPins_U8+3
  2662     0982                     l2185:
  2663                           
  2664                           ;keypad.c: 102:     for(i=0;i<(4);i++)
  2665     0982  01B0               	clrf	KEYPAD_Init@i
  2666     0983                     l2191:
  2667                           
  2668                           ;keypad.c: 103:     {;keypad.c: 104:         GPIO_PinDirection(A_RowsPins_U8[i],0x00u);
  2669     0983  01A2               	clrf	GPIO_PinDirection@var_pinDirn_u8
  2670     0984  0830               	movf	KEYPAD_Init@i,w
  2671     0985  3E56               	addlw	(low (_A_RowsPins_U8| 0))& (0+255)
  2672     0986  0084               	movwf	4
  2673     0987  1383               	bcf	3,7	;select IRP bank0
  2674     0988  0800               	movf	0,w
  2675     0989  118A  2659  158A   	fcall	_GPIO_PinDirection
  2676     098C                     l2193:
  2677                           
  2678                           ;keypad.c: 105:     }
  2679     098C  3001               	movlw	1
  2680     098D  1283               	bcf	3,5	;RP0=0, select bank0
  2681     098E  1303               	bcf	3,6	;RP1=0, select bank0
  2682     098F  00AE               	movwf	??_KEYPAD_Init
  2683     0990  082E               	movf	??_KEYPAD_Init,w
  2684     0991  07B0               	addwf	KEYPAD_Init@i,f
  2685     0992                     l2195:
  2686     0992  3004               	movlw	4
  2687     0993  0230               	subwf	KEYPAD_Init@i,w
  2688     0994  1C03               	skipc
  2689     0995  2997               	goto	u2481
  2690     0996  2998               	goto	u2480
  2691     0997                     u2481:
  2692     0997  2983               	goto	l2191
  2693     0998                     u2480:
  2694     0998                     l2197:
  2695                           
  2696                           ;keypad.c: 108:     for(i=0;i<(4);i++)
  2697     0998  01B0               	clrf	KEYPAD_Init@i
  2698     0999                     l2203:
  2699                           
  2700                           ;keypad.c: 109:     {;keypad.c: 110:         GPIO_PinDirection(A_ColsPins_U8[i],0x01u);
  2701     0999  01A2               	clrf	GPIO_PinDirection@var_pinDirn_u8
  2702     099A  0AA2               	incf	GPIO_PinDirection@var_pinDirn_u8,f
  2703     099B  0830               	movf	KEYPAD_Init@i,w
  2704     099C  3E52               	addlw	(low (_A_ColsPins_U8| 0))& (0+255)
  2705     099D  0084               	movwf	4
  2706     099E  1383               	bcf	3,7	;select IRP bank0
  2707     099F  0800               	movf	0,w
  2708     09A0  118A  2659  158A   	fcall	_GPIO_PinDirection
  2709     09A3                     l2205:
  2710                           
  2711                           ;keypad.c: 111:     }
  2712     09A3  3001               	movlw	1
  2713     09A4  1283               	bcf	3,5	;RP0=0, select bank0
  2714     09A5  1303               	bcf	3,6	;RP1=0, select bank0
  2715     09A6  00AE               	movwf	??_KEYPAD_Init
  2716     09A7  082E               	movf	??_KEYPAD_Init,w
  2717     09A8  07B0               	addwf	KEYPAD_Init@i,f
  2718     09A9                     l2207:
  2719     09A9  3004               	movlw	4
  2720     09AA  0230               	subwf	KEYPAD_Init@i,w
  2721     09AB  1C03               	skipc
  2722     09AC  29AE               	goto	u2491
  2723     09AD  29AF               	goto	u2490
  2724     09AE                     u2491:
  2725     09AE  2999               	goto	l2203
  2726     09AF                     u2490:
  2727     09AF                     l300:
  2728     09AF  0008               	return
  2729     09B0                     __end_of_KEYPAD_Init:
  2730                           
  2731                           	psect	text7
  2732     0659                     __ptext7:	
  2733 ;; *************** function _GPIO_PinDirection *****************
  2734 ;; Defined at:
  2735 ;;		line 28 in file "gpio.c"
  2736 ;; Parameters:    Size  Location     Type
  2737 ;;  enm_pinNumbe    1    wreg     enum E790
  2738 ;;  var_pinDirn_    1    2[BANK0 ] unsigned char 
  2739 ;; Auto vars:     Size  Location     Type
  2740 ;;  enm_pinNumbe    1    6[BANK0 ] enum E790
  2741 ;;  var_portNumb    1    5[BANK0 ] unsigned char 
  2742 ;; Return value:  Size  Location     Type
  2743 ;;                  1    wreg      void 
  2744 ;; Registers used:
  2745 ;;		wreg, fsr0l, fsr0h, status,2, status,0
  2746 ;; Tracked objects:
  2747 ;;		On entry : 0/0
  2748 ;;		On exit  : 0/0
  2749 ;;		Unchanged: 0/0
  2750 ;; Data sizes:     COMMON   BANK0   BANK1
  2751 ;;      Params:         0       1       0
  2752 ;;      Locals:         0       2       0
  2753 ;;      Temps:          0       2       0
  2754 ;;      Totals:         0       5       0
  2755 ;;Total ram usage:        5 bytes
  2756 ;; Hardware stack levels used: 1
  2757 ;; Hardware stack levels required when called: 1
  2758 ;; This function calls:
  2759 ;;		Nothing
  2760 ;; This function is called by:
  2761 ;;		_KEYPAD_Init
  2762 ;; This function uses a non-reentrant model
  2763 ;;
  2764                           
  2765     0659                     _GPIO_PinDirection:	
  2766                           ;psect for function _GPIO_PinDirection
  2767                           
  2768                           
  2769                           ;incstack = 0
  2770                           ; Regs used in _GPIO_PinDirection: [wreg-fsr0h+status,2+status,0]
  2771                           ;GPIO_PinDirection@enm_pinNumber stored from wreg
  2772     0659  1283               	bcf	3,5	;RP0=0, select bank0
  2773     065A  1303               	bcf	3,6	;RP1=0, select bank0
  2774     065B  00A6               	movwf	GPIO_PinDirection@enm_pinNumber
  2775     065C                     l2093:
  2776                           
  2777                           ;gpio.c: 28: void GPIO_PinDirection(gpioPins_et enm_pinNumber, uint8_t var_pinDirn_u8);g
      +                          pio.c: 29: {;gpio.c: 31:     uint8_t var_portNumber_u8;;gpio.c: 34:     var_portNumber_u
      +                          8 = (enm_pinNumber>>3);
  2778     065C  0826               	movf	GPIO_PinDirection@enm_pinNumber,w
  2779     065D  00A3               	movwf	??_GPIO_PinDirection
  2780     065E  3003               	movlw	3
  2781     065F                     u2115:
  2782     065F  1003               	clrc
  2783     0660  0CA3               	rrf	??_GPIO_PinDirection,f
  2784     0661  3EFF               	addlw	-1
  2785     0662  1D03               	skipz
  2786     0663  2E5F               	goto	u2115
  2787     0664  0823               	movf	??_GPIO_PinDirection,w
  2788     0665  00A5               	movwf	GPIO_PinDirection@var_portNumber_u8
  2789     0666                     l2095:
  2790                           
  2791                           ;gpio.c: 35:     enm_pinNumber = enm_pinNumber & 0x07;
  2792     0666  0826               	movf	GPIO_PinDirection@enm_pinNumber,w
  2793     0667  3907               	andlw	7
  2794     0668  00A6               	movwf	GPIO_PinDirection@enm_pinNumber
  2795                           
  2796                           ;gpio.c: 39:     switch(var_portNumber_u8)
  2797     0669  2F28               	goto	l2129
  2798     066A                     l2097:
  2799                           
  2800                           ;gpio.c: 43:         ((var_pinDirn_u8)? ((TRISA) |= (1<<(enm_pinNumber))): ((TRISA) &= ~
      +                          (1<<(enm_pinNumber))));
  2801     066A  0822               	movf	GPIO_PinDirection@var_pinDirn_u8,w
  2802     066B  1903               	btfsc	3,2
  2803     066C  2E6E               	goto	u2121
  2804     066D  2E6F               	goto	u2120
  2805     066E                     u2121:
  2806     066E  2E7F               	goto	l2101
  2807     066F                     u2120:
  2808     066F                     l2099:
  2809     066F  3001               	movlw	1
  2810     0670  00A3               	movwf	??_GPIO_PinDirection
  2811     0671  0A26               	incf	GPIO_PinDirection@enm_pinNumber,w
  2812     0672  2E75               	goto	u2134
  2813     0673                     u2135:
  2814     0673  1003               	clrc
  2815     0674  0DA3               	rlf	??_GPIO_PinDirection,f
  2816     0675                     u2134:
  2817     0675  3EFF               	addlw	-1
  2818     0676  1D03               	skipz
  2819     0677  2E73               	goto	u2135
  2820     0678  0823               	movf	??_GPIO_PinDirection,w
  2821     0679  00A4               	movwf	??_GPIO_PinDirection+1
  2822     067A  0824               	movf	??_GPIO_PinDirection+1,w
  2823     067B  1683               	bsf	3,5	;RP0=1, select bank1
  2824     067C  1303               	bcf	3,6	;RP1=0, select bank1
  2825     067D  0485               	iorwf	5,f	;volatile
  2826     067E  2F41               	goto	l239
  2827     067F                     l2101:
  2828     067F  3001               	movlw	1
  2829     0680  00A3               	movwf	??_GPIO_PinDirection
  2830     0681  0A26               	incf	GPIO_PinDirection@enm_pinNumber,w
  2831     0682  2E85               	goto	u2144
  2832     0683                     u2145:
  2833     0683  1003               	clrc
  2834     0684  0DA3               	rlf	??_GPIO_PinDirection,f
  2835     0685                     u2144:
  2836     0685  3EFF               	addlw	-1
  2837     0686  1D03               	skipz
  2838     0687  2E83               	goto	u2145
  2839     0688  0823               	movf	??_GPIO_PinDirection,w
  2840     0689  3AFF               	xorlw	255
  2841     068A  00A4               	movwf	??_GPIO_PinDirection+1
  2842     068B  0824               	movf	??_GPIO_PinDirection+1,w
  2843     068C  1683               	bsf	3,5	;RP0=1, select bank1
  2844     068D  1303               	bcf	3,6	;RP1=0, select bank1
  2845     068E  0585               	andwf	5,f	;volatile
  2846     068F  2F41               	goto	l239
  2847     0690                     l2103:
  2848                           
  2849                           ;gpio.c: 49:         ((var_pinDirn_u8)? ((TRISB) |= (1<<(enm_pinNumber))): ((TRISB) &= ~
      +                          (1<<(enm_pinNumber))));
  2850     0690  0822               	movf	GPIO_PinDirection@var_pinDirn_u8,w
  2851     0691  1903               	btfsc	3,2
  2852     0692  2E94               	goto	u2151
  2853     0693  2E95               	goto	u2150
  2854     0694                     u2151:
  2855     0694  2EA5               	goto	l2107
  2856     0695                     u2150:
  2857     0695                     l2105:
  2858     0695  3001               	movlw	1
  2859     0696  00A3               	movwf	??_GPIO_PinDirection
  2860     0697  0A26               	incf	GPIO_PinDirection@enm_pinNumber,w
  2861     0698  2E9B               	goto	u2164
  2862     0699                     u2165:
  2863     0699  1003               	clrc
  2864     069A  0DA3               	rlf	??_GPIO_PinDirection,f
  2865     069B                     u2164:
  2866     069B  3EFF               	addlw	-1
  2867     069C  1D03               	skipz
  2868     069D  2E99               	goto	u2165
  2869     069E  0823               	movf	??_GPIO_PinDirection,w
  2870     069F  00A4               	movwf	??_GPIO_PinDirection+1
  2871     06A0  0824               	movf	??_GPIO_PinDirection+1,w
  2872     06A1  1683               	bsf	3,5	;RP0=1, select bank1
  2873     06A2  1303               	bcf	3,6	;RP1=0, select bank1
  2874     06A3  0486               	iorwf	6,f	;volatile
  2875     06A4  2F41               	goto	l239
  2876     06A5                     l2107:
  2877     06A5  3001               	movlw	1
  2878     06A6  00A3               	movwf	??_GPIO_PinDirection
  2879     06A7  0A26               	incf	GPIO_PinDirection@enm_pinNumber,w
  2880     06A8  2EAB               	goto	u2174
  2881     06A9                     u2175:
  2882     06A9  1003               	clrc
  2883     06AA  0DA3               	rlf	??_GPIO_PinDirection,f
  2884     06AB                     u2174:
  2885     06AB  3EFF               	addlw	-1
  2886     06AC  1D03               	skipz
  2887     06AD  2EA9               	goto	u2175
  2888     06AE  0823               	movf	??_GPIO_PinDirection,w
  2889     06AF  3AFF               	xorlw	255
  2890     06B0  00A4               	movwf	??_GPIO_PinDirection+1
  2891     06B1  0824               	movf	??_GPIO_PinDirection+1,w
  2892     06B2  1683               	bsf	3,5	;RP0=1, select bank1
  2893     06B3  1303               	bcf	3,6	;RP1=0, select bank1
  2894     06B4  0586               	andwf	6,f	;volatile
  2895     06B5  2F41               	goto	l239
  2896     06B6                     l2109:
  2897                           
  2898                           ;gpio.c: 55:         ((var_pinDirn_u8)? ((TRISC) |= (1<<(enm_pinNumber))): ((TRISC) &= ~
      +                          (1<<(enm_pinNumber))));
  2899     06B6  0822               	movf	GPIO_PinDirection@var_pinDirn_u8,w
  2900     06B7  1903               	btfsc	3,2
  2901     06B8  2EBA               	goto	u2181
  2902     06B9  2EBB               	goto	u2180
  2903     06BA                     u2181:
  2904     06BA  2ECB               	goto	l2113
  2905     06BB                     u2180:
  2906     06BB                     l2111:
  2907     06BB  3001               	movlw	1
  2908     06BC  00A3               	movwf	??_GPIO_PinDirection
  2909     06BD  0A26               	incf	GPIO_PinDirection@enm_pinNumber,w
  2910     06BE  2EC1               	goto	u2194
  2911     06BF                     u2195:
  2912     06BF  1003               	clrc
  2913     06C0  0DA3               	rlf	??_GPIO_PinDirection,f
  2914     06C1                     u2194:
  2915     06C1  3EFF               	addlw	-1
  2916     06C2  1D03               	skipz
  2917     06C3  2EBF               	goto	u2195
  2918     06C4  0823               	movf	??_GPIO_PinDirection,w
  2919     06C5  00A4               	movwf	??_GPIO_PinDirection+1
  2920     06C6  0824               	movf	??_GPIO_PinDirection+1,w
  2921     06C7  1683               	bsf	3,5	;RP0=1, select bank1
  2922     06C8  1303               	bcf	3,6	;RP1=0, select bank1
  2923     06C9  0487               	iorwf	7,f	;volatile
  2924     06CA  2F41               	goto	l239
  2925     06CB                     l2113:
  2926     06CB  3001               	movlw	1
  2927     06CC  00A3               	movwf	??_GPIO_PinDirection
  2928     06CD  0A26               	incf	GPIO_PinDirection@enm_pinNumber,w
  2929     06CE  2ED1               	goto	u2204
  2930     06CF                     u2205:
  2931     06CF  1003               	clrc
  2932     06D0  0DA3               	rlf	??_GPIO_PinDirection,f
  2933     06D1                     u2204:
  2934     06D1  3EFF               	addlw	-1
  2935     06D2  1D03               	skipz
  2936     06D3  2ECF               	goto	u2205
  2937     06D4  0823               	movf	??_GPIO_PinDirection,w
  2938     06D5  3AFF               	xorlw	255
  2939     06D6  00A4               	movwf	??_GPIO_PinDirection+1
  2940     06D7  0824               	movf	??_GPIO_PinDirection+1,w
  2941     06D8  1683               	bsf	3,5	;RP0=1, select bank1
  2942     06D9  1303               	bcf	3,6	;RP1=0, select bank1
  2943     06DA  0587               	andwf	7,f	;volatile
  2944     06DB  2F41               	goto	l239
  2945     06DC                     l2115:
  2946                           
  2947                           ;gpio.c: 61:         ((var_pinDirn_u8)? ((TRISD) |= (1<<(enm_pinNumber))): ((TRISD) &= ~
      +                          (1<<(enm_pinNumber))));
  2948     06DC  0822               	movf	GPIO_PinDirection@var_pinDirn_u8,w
  2949     06DD  1903               	btfsc	3,2
  2950     06DE  2EE0               	goto	u2211
  2951     06DF  2EE1               	goto	u2210
  2952     06E0                     u2211:
  2953     06E0  2EF1               	goto	l2119
  2954     06E1                     u2210:
  2955     06E1                     l2117:
  2956     06E1  3001               	movlw	1
  2957     06E2  00A3               	movwf	??_GPIO_PinDirection
  2958     06E3  0A26               	incf	GPIO_PinDirection@enm_pinNumber,w
  2959     06E4  2EE7               	goto	u2224
  2960     06E5                     u2225:
  2961     06E5  1003               	clrc
  2962     06E6  0DA3               	rlf	??_GPIO_PinDirection,f
  2963     06E7                     u2224:
  2964     06E7  3EFF               	addlw	-1
  2965     06E8  1D03               	skipz
  2966     06E9  2EE5               	goto	u2225
  2967     06EA  0823               	movf	??_GPIO_PinDirection,w
  2968     06EB  00A4               	movwf	??_GPIO_PinDirection+1
  2969     06EC  0824               	movf	??_GPIO_PinDirection+1,w
  2970     06ED  1683               	bsf	3,5	;RP0=1, select bank1
  2971     06EE  1303               	bcf	3,6	;RP1=0, select bank1
  2972     06EF  0488               	iorwf	8,f	;volatile
  2973     06F0  2F41               	goto	l239
  2974     06F1                     l2119:
  2975     06F1  3001               	movlw	1
  2976     06F2  00A3               	movwf	??_GPIO_PinDirection
  2977     06F3  0A26               	incf	GPIO_PinDirection@enm_pinNumber,w
  2978     06F4  2EF7               	goto	u2234
  2979     06F5                     u2235:
  2980     06F5  1003               	clrc
  2981     06F6  0DA3               	rlf	??_GPIO_PinDirection,f
  2982     06F7                     u2234:
  2983     06F7  3EFF               	addlw	-1
  2984     06F8  1D03               	skipz
  2985     06F9  2EF5               	goto	u2235
  2986     06FA  0823               	movf	??_GPIO_PinDirection,w
  2987     06FB  3AFF               	xorlw	255
  2988     06FC  00A4               	movwf	??_GPIO_PinDirection+1
  2989     06FD  0824               	movf	??_GPIO_PinDirection+1,w
  2990     06FE  1683               	bsf	3,5	;RP0=1, select bank1
  2991     06FF  1303               	bcf	3,6	;RP1=0, select bank1
  2992     0700  0588               	andwf	8,f	;volatile
  2993     0701  2F41               	goto	l239
  2994     0702                     l2121:
  2995                           
  2996                           ;gpio.c: 66:         ((var_pinDirn_u8)? ((TRISE) |= (1<<(enm_pinNumber))): ((TRISE) &= ~
      +                          (1<<(enm_pinNumber))));
  2997     0702  0822               	movf	GPIO_PinDirection@var_pinDirn_u8,w
  2998     0703  1903               	btfsc	3,2
  2999     0704  2F06               	goto	u2241
  3000     0705  2F07               	goto	u2240
  3001     0706                     u2241:
  3002     0706  2F17               	goto	l2125
  3003     0707                     u2240:
  3004     0707                     l2123:
  3005     0707  3001               	movlw	1
  3006     0708  00A3               	movwf	??_GPIO_PinDirection
  3007     0709  0A26               	incf	GPIO_PinDirection@enm_pinNumber,w
  3008     070A  2F0D               	goto	u2254
  3009     070B                     u2255:
  3010     070B  1003               	clrc
  3011     070C  0DA3               	rlf	??_GPIO_PinDirection,f
  3012     070D                     u2254:
  3013     070D  3EFF               	addlw	-1
  3014     070E  1D03               	skipz
  3015     070F  2F0B               	goto	u2255
  3016     0710  0823               	movf	??_GPIO_PinDirection,w
  3017     0711  00A4               	movwf	??_GPIO_PinDirection+1
  3018     0712  0824               	movf	??_GPIO_PinDirection+1,w
  3019     0713  1683               	bsf	3,5	;RP0=1, select bank1
  3020     0714  1303               	bcf	3,6	;RP1=0, select bank1
  3021     0715  0489               	iorwf	9,f	;volatile
  3022     0716  2F41               	goto	l239
  3023     0717                     l2125:
  3024     0717  3001               	movlw	1
  3025     0718  00A3               	movwf	??_GPIO_PinDirection
  3026     0719  0A26               	incf	GPIO_PinDirection@enm_pinNumber,w
  3027     071A  2F1D               	goto	u2264
  3028     071B                     u2265:
  3029     071B  1003               	clrc
  3030     071C  0DA3               	rlf	??_GPIO_PinDirection,f
  3031     071D                     u2264:
  3032     071D  3EFF               	addlw	-1
  3033     071E  1D03               	skipz
  3034     071F  2F1B               	goto	u2265
  3035     0720  0823               	movf	??_GPIO_PinDirection,w
  3036     0721  3AFF               	xorlw	255
  3037     0722  00A4               	movwf	??_GPIO_PinDirection+1
  3038     0723  0824               	movf	??_GPIO_PinDirection+1,w
  3039     0724  1683               	bsf	3,5	;RP0=1, select bank1
  3040     0725  1303               	bcf	3,6	;RP1=0, select bank1
  3041     0726  0589               	andwf	9,f	;volatile
  3042     0727  2F41               	goto	l239
  3043     0728                     l2129:
  3044     0728  0825               	movf	GPIO_PinDirection@var_portNumber_u8,w
  3045     0729  00A3               	movwf	??_GPIO_PinDirection
  3046     072A  01A4               	clrf	??_GPIO_PinDirection+1
  3047                           
  3048                           ; Switch on 2 bytes has been partitioned into a top level switch of size 1, and 1 sub-sw
      +                          itches
  3049                           ; Switch size 1, requested type "simple"
  3050                           ; Number of cases is 1, Range of values is 0 to 0
  3051                           ; switch strategies available:
  3052                           ; Name         Instructions Cycles
  3053                           ; simple_byte            4     3 (average)
  3054                           ; direct_byte            9     7 (fixed)
  3055                           ; jumptable            260     6 (fixed)
  3056                           ;	Chosen strategy is simple_byte
  3057     072B  0824               	movf	??_GPIO_PinDirection+1,w
  3058     072C  3A00               	xorlw	0	; case 0
  3059     072D  1903               	skipnz
  3060     072E  2F30               	goto	l3031
  3061     072F  2F41               	goto	l239
  3062     0730                     l3031:
  3063                           
  3064                           ; Switch size 1, requested type "simple"
  3065                           ; Number of cases is 5, Range of values is 0 to 4
  3066                           ; switch strategies available:
  3067                           ; Name         Instructions Cycles
  3068                           ; simple_byte           16     9 (average)
  3069                           ; direct_byte           17     7 (fixed)
  3070                           ; jumptable            260     6 (fixed)
  3071                           ;	Chosen strategy is simple_byte
  3072     0730  0823               	movf	??_GPIO_PinDirection,w
  3073     0731  3A00               	xorlw	0	; case 0
  3074     0732  1903               	skipnz
  3075     0733  2E6A               	goto	l2097
  3076     0734  3A01               	xorlw	1	; case 1
  3077     0735  1903               	skipnz
  3078     0736  2E90               	goto	l2103
  3079     0737  3A03               	xorlw	3	; case 2
  3080     0738  1903               	skipnz
  3081     0739  2EB6               	goto	l2109
  3082     073A  3A01               	xorlw	1	; case 3
  3083     073B  1903               	skipnz
  3084     073C  2EDC               	goto	l2115
  3085     073D  3A07               	xorlw	7	; case 4
  3086     073E  1903               	skipnz
  3087     073F  2F02               	goto	l2121
  3088     0740  2F41               	goto	l239
  3089     0741                     l239:
  3090     0741  0008               	return
  3091     0742                     __end_of_GPIO_PinDirection:
  3092                           
  3093                           	psect	text8
  3094     0B19                     __ptext8:	
  3095 ;; *************** function _KEYPAD_GetKey *****************
  3096 ;; Defined at:
  3097 ;;		line 227 in file "keypad.c"
  3098 ;; Parameters:    Size  Location     Type
  3099 ;;		None
  3100 ;; Auto vars:     Size  Location     Type
  3101 ;;  i               1   11[BANK0 ] unsigned char 
  3102 ;;  j               1   10[BANK0 ] unsigned char 
  3103 ;;  v_KeyPressed    1    9[BANK0 ] unsigned char 
  3104 ;; Return value:  Size  Location     Type
  3105 ;;                  1    wreg      unsigned char 
  3106 ;; Registers used:
  3107 ;;		wreg, fsr0l, fsr0h, status,2, status,0, pclath, cstack
  3108 ;; Tracked objects:
  3109 ;;		On entry : 0/0
  3110 ;;		On exit  : 0/0
  3111 ;;		Unchanged: 0/0
  3112 ;; Data sizes:     COMMON   BANK0   BANK1
  3113 ;;      Params:         0       0       0
  3114 ;;      Locals:         0       3       0
  3115 ;;      Temps:          0       2       0
  3116 ;;      Totals:         0       5       0
  3117 ;;Total ram usage:        5 bytes
  3118 ;; Hardware stack levels used: 1
  3119 ;; Hardware stack levels required when called: 2
  3120 ;; This function calls:
  3121 ;;		_GPIO_PinRead
  3122 ;;		_GPIO_PinWrite
  3123 ;; This function is called by:
  3124 ;;		_main
  3125 ;; This function uses a non-reentrant model
  3126 ;;
  3127                           
  3128     0B19                     _KEYPAD_GetKey:	
  3129                           ;psect for function _KEYPAD_GetKey
  3130                           
  3131     0B19                     l2213:	
  3132                           ;incstack = 0
  3133                           ; Regs used in _KEYPAD_GetKey: [wreg-fsr0h+status,2+status,0+pclath+cstack]
  3134                           
  3135                           
  3136                           ;keypad.c: 229:     uint8_t i,j,v_KeyPressed_u8 = 0;
  3137     0B19  1283               	bcf	3,5	;RP0=0, select bank0
  3138     0B1A  1303               	bcf	3,6	;RP1=0, select bank0
  3139     0B1B  01A9               	clrf	KEYPAD_GetKey@v_KeyPressed_u8
  3140                           
  3141                           ;keypad.c: 235:     for (i=0;i<(4);i++)
  3142     0B1C  01AB               	clrf	KEYPAD_GetKey@i
  3143     0B1D                     l2219:
  3144                           
  3145                           ;keypad.c: 236:     {;keypad.c: 237:         GPIO_PinWrite(A_RowsPins_U8[i],0x01u);
  3146     0B1D  01A2               	clrf	GPIO_PinWrite@var_pinValue_u8
  3147     0B1E  0AA2               	incf	GPIO_PinWrite@var_pinValue_u8,f
  3148     0B1F  082B               	movf	KEYPAD_GetKey@i,w
  3149     0B20  3E56               	addlw	(low (_A_RowsPins_U8| 0))& (0+255)
  3150     0B21  0084               	movwf	4
  3151     0B22  1383               	bcf	3,7	;select IRP bank0
  3152     0B23  0800               	movf	0,w
  3153     0B24  158A  2396  158A   	fcall	_GPIO_PinWrite
  3154     0B27                     l2221:
  3155                           
  3156                           ;keypad.c: 238:     }
  3157     0B27  3001               	movlw	1
  3158     0B28  1283               	bcf	3,5	;RP0=0, select bank0
  3159     0B29  1303               	bcf	3,6	;RP1=0, select bank0
  3160     0B2A  00A7               	movwf	??_KEYPAD_GetKey
  3161     0B2B  0827               	movf	??_KEYPAD_GetKey,w
  3162     0B2C  07AB               	addwf	KEYPAD_GetKey@i,f
  3163     0B2D                     l2223:
  3164     0B2D  3004               	movlw	4
  3165     0B2E  022B               	subwf	KEYPAD_GetKey@i,w
  3166     0B2F  1C03               	skipc
  3167     0B30  2B32               	goto	u2501
  3168     0B31  2B33               	goto	u2500
  3169     0B32                     u2501:
  3170     0B32  2B1D               	goto	l2219
  3171     0B33                     u2500:
  3172     0B33                     l2225:
  3173                           
  3174                           ;keypad.c: 240:     for (i=0;(i<(4));i++)
  3175     0B33  01AB               	clrf	KEYPAD_GetKey@i
  3176     0B34                     l2231:
  3177                           
  3178                           ;keypad.c: 241:     {;keypad.c: 242:         GPIO_PinWrite(A_RowsPins_U8[i],0x00u);
  3179     0B34  01A2               	clrf	GPIO_PinWrite@var_pinValue_u8
  3180     0B35  082B               	movf	KEYPAD_GetKey@i,w
  3181     0B36  3E56               	addlw	(low (_A_RowsPins_U8| 0))& (0+255)
  3182     0B37  0084               	movwf	4
  3183     0B38  1383               	bcf	3,7	;select IRP bank0
  3184     0B39  0800               	movf	0,w
  3185     0B3A  158A  2396  158A   	fcall	_GPIO_PinWrite
  3186     0B3D                     l2233:
  3187                           
  3188                           ;keypad.c: 246:         for(j=0; (j<(4)); j++)
  3189     0B3D  1283               	bcf	3,5	;RP0=0, select bank0
  3190     0B3E  1303               	bcf	3,6	;RP1=0, select bank0
  3191     0B3F  01AA               	clrf	KEYPAD_GetKey@j
  3192     0B40                     l2239:
  3193                           
  3194                           ;keypad.c: 247:         {;keypad.c: 249:            if(GPIO_PinRead(A_ColsPins_U8[j]) ==
      +                           0)
  3195     0B40  082A               	movf	KEYPAD_GetKey@j,w
  3196     0B41  3E52               	addlw	(low (_A_ColsPins_U8| 0))& (0+255)
  3197     0B42  0084               	movwf	4
  3198     0B43  1383               	bcf	3,7	;select IRP bank0
  3199     0B44  0800               	movf	0,w
  3200     0B45  118A  2742  158A   	fcall	_GPIO_PinRead
  3201     0B48  3A00               	xorlw	0
  3202     0B49  1D03               	skipz
  3203     0B4A  2B4C               	goto	u2511
  3204     0B4B  2B4D               	goto	u2510
  3205     0B4C                     u2511:
  3206     0B4C  2B52               	goto	l2243
  3207     0B4D                     u2510:
  3208     0B4D                     l2241:
  3209                           
  3210                           ;keypad.c: 250:             {;keypad.c: 251:                 v_KeyPressed_u8 = 1;
  3211     0B4D  1283               	bcf	3,5	;RP0=0, select bank0
  3212     0B4E  1303               	bcf	3,6	;RP1=0, select bank0
  3213     0B4F  01A9               	clrf	KEYPAD_GetKey@v_KeyPressed_u8
  3214     0B50  0AA9               	incf	KEYPAD_GetKey@v_KeyPressed_u8,f
  3215                           
  3216                           ;keypad.c: 252:                 break;
  3217     0B51  2B5E               	goto	l2247
  3218     0B52                     l2243:
  3219                           
  3220                           ;keypad.c: 254:         }
  3221     0B52  3001               	movlw	1
  3222     0B53  1283               	bcf	3,5	;RP0=0, select bank0
  3223     0B54  1303               	bcf	3,6	;RP1=0, select bank0
  3224     0B55  00A7               	movwf	??_KEYPAD_GetKey
  3225     0B56  0827               	movf	??_KEYPAD_GetKey,w
  3226     0B57  07AA               	addwf	KEYPAD_GetKey@j,f
  3227     0B58                     l2245:
  3228     0B58  3004               	movlw	4
  3229     0B59  022A               	subwf	KEYPAD_GetKey@j,w
  3230     0B5A  1C03               	skipc
  3231     0B5B  2B5D               	goto	u2521
  3232     0B5C  2B5E               	goto	u2520
  3233     0B5D                     u2521:
  3234     0B5D  2B40               	goto	l2239
  3235     0B5E                     u2520:
  3236     0B5E                     l2247:
  3237                           
  3238                           ;keypad.c: 256:         if(v_KeyPressed_u8 ==1)
  3239     0B5E  0329               	decf	KEYPAD_GetKey@v_KeyPressed_u8,w
  3240     0B5F  1D03               	btfss	3,2
  3241     0B60  2B62               	goto	u2531
  3242     0B61  2B63               	goto	u2530
  3243     0B62                     u2531:
  3244     0B62  2B64               	goto	l2251
  3245     0B63                     u2530:
  3246     0B63  2B7A               	goto	l2257
  3247     0B64                     l2251:
  3248                           
  3249                           ;keypad.c: 261:         GPIO_PinWrite(A_RowsPins_U8[i],0x01u);
  3250     0B64  01A2               	clrf	GPIO_PinWrite@var_pinValue_u8
  3251     0B65  0AA2               	incf	GPIO_PinWrite@var_pinValue_u8,f
  3252     0B66  082B               	movf	KEYPAD_GetKey@i,w
  3253     0B67  3E56               	addlw	(low (_A_RowsPins_U8| 0))& (0+255)
  3254     0B68  0084               	movwf	4
  3255     0B69  1383               	bcf	3,7	;select IRP bank0
  3256     0B6A  0800               	movf	0,w
  3257     0B6B  158A  2396  158A   	fcall	_GPIO_PinWrite
  3258     0B6E                     l2253:
  3259                           
  3260                           ;keypad.c: 262:     }
  3261     0B6E  3001               	movlw	1
  3262     0B6F  1283               	bcf	3,5	;RP0=0, select bank0
  3263     0B70  1303               	bcf	3,6	;RP1=0, select bank0
  3264     0B71  00A7               	movwf	??_KEYPAD_GetKey
  3265     0B72  0827               	movf	??_KEYPAD_GetKey,w
  3266     0B73  07AB               	addwf	KEYPAD_GetKey@i,f
  3267     0B74                     l2255:
  3268     0B74  3004               	movlw	4
  3269     0B75  022B               	subwf	KEYPAD_GetKey@i,w
  3270     0B76  1C03               	skipc
  3271     0B77  2B79               	goto	u2541
  3272     0B78  2B7A               	goto	u2540
  3273     0B79                     u2541:
  3274     0B79  2B34               	goto	l2231
  3275     0B7A                     u2540:
  3276     0B7A                     l2257:
  3277                           
  3278                           ;keypad.c: 264:     if(i<(4))
  3279     0B7A  3004               	movlw	4
  3280     0B7B  022B               	subwf	KEYPAD_GetKey@i,w
  3281     0B7C  1803               	skipnc
  3282     0B7D  2B7F               	goto	u2551
  3283     0B7E  2B80               	goto	u2550
  3284     0B7F                     u2551:
  3285     0B7F  2B93               	goto	l2261
  3286     0B80                     u2550:
  3287     0B80                     l2259:
  3288                           
  3289                           ;keypad.c: 265:         v_KeyPressed_u8 = A_KeyLookUptable_U8[i][j];
  3290     0B80  082B               	movf	KEYPAD_GetKey@i,w
  3291     0B81  00A7               	movwf	??_KEYPAD_GetKey
  3292     0B82  3002               	movlw	2
  3293     0B83                     u2565:
  3294     0B83  1003               	clrc
  3295     0B84  0DA7               	rlf	??_KEYPAD_GetKey,f
  3296     0B85  3EFF               	addlw	-1
  3297     0B86  1D03               	skipz
  3298     0B87  2B83               	goto	u2565
  3299     0B88  3001               	movlw	(low ((_A_KeyLookUptable_U8-__stringbase)| (0+32768)))& (0+255)
  3300     0B89  0727               	addwf	??_KEYPAD_GetKey,w
  3301     0B8A  00A8               	movwf	??_KEYPAD_GetKey+1
  3302     0B8B  082A               	movf	KEYPAD_GetKey@j,w
  3303     0B8C  0728               	addwf	??_KEYPAD_GetKey+1,w
  3304     0B8D  0084               	movwf	4
  3305     0B8E  158A  2000  158A   	fcall	stringdir
  3306     0B91  00A9               	movwf	KEYPAD_GetKey@v_KeyPressed_u8
  3307     0B92  2B94               	goto	l2263
  3308     0B93                     l2261:
  3309                           
  3310                           ;keypad.c: 267:         v_KeyPressed_u8 = 0;
  3311     0B93  01A9               	clrf	KEYPAD_GetKey@v_KeyPressed_u8
  3312     0B94                     l2263:
  3313                           
  3314                           ;keypad.c: 270:     return v_KeyPressed_u8;
  3315     0B94  0829               	movf	KEYPAD_GetKey@v_KeyPressed_u8,w
  3316     0B95                     l339:
  3317     0B95  0008               	return
  3318     0B96                     __end_of_KEYPAD_GetKey:
  3319                           
  3320                           	psect	text9
  3321     0B96                     __ptext9:	
  3322 ;; *************** function _GPIO_PinWrite *****************
  3323 ;; Defined at:
  3324 ;;		line 95 in file "gpio.c"
  3325 ;; Parameters:    Size  Location     Type
  3326 ;;  enm_pinNumbe    1    wreg     enum E790
  3327 ;;  var_pinValue    1    2[BANK0 ] unsigned char 
  3328 ;; Auto vars:     Size  Location     Type
  3329 ;;  enm_pinNumbe    1    6[BANK0 ] enum E790
  3330 ;;  var_portNumb    1    5[BANK0 ] unsigned char 
  3331 ;; Return value:  Size  Location     Type
  3332 ;;                  1    wreg      void 
  3333 ;; Registers used:
  3334 ;;		wreg, fsr0l, fsr0h, status,2, status,0
  3335 ;; Tracked objects:
  3336 ;;		On entry : 0/0
  3337 ;;		On exit  : 0/0
  3338 ;;		Unchanged: 0/0
  3339 ;; Data sizes:     COMMON   BANK0   BANK1
  3340 ;;      Params:         0       1       0
  3341 ;;      Locals:         0       2       0
  3342 ;;      Temps:          0       2       0
  3343 ;;      Totals:         0       5       0
  3344 ;;Total ram usage:        5 bytes
  3345 ;; Hardware stack levels used: 1
  3346 ;; Hardware stack levels required when called: 1
  3347 ;; This function calls:
  3348 ;;		Nothing
  3349 ;; This function is called by:
  3350 ;;		_main
  3351 ;;		_KEYPAD_GetKey
  3352 ;;		_keypad_WaitForKeyRelease
  3353 ;;		_keypad_WaitForKeyPress
  3354 ;; This function uses a non-reentrant model
  3355 ;;
  3356                           
  3357     0B96                     _GPIO_PinWrite:	
  3358                           ;psect for function _GPIO_PinWrite
  3359                           
  3360                           
  3361                           ;incstack = 0
  3362                           ; Regs used in _GPIO_PinWrite: [wreg-fsr0h+status,2+status,0]
  3363                           ;GPIO_PinWrite@enm_pinNumber stored from wreg
  3364     0B96  1283               	bcf	3,5	;RP0=0, select bank0
  3365     0B97  1303               	bcf	3,6	;RP1=0, select bank0
  3366     0B98  00A6               	movwf	GPIO_PinWrite@enm_pinNumber
  3367     0B99                     l2051:
  3368                           
  3369                           ;gpio.c: 95: void GPIO_PinWrite(gpioPins_et enm_pinNumber, uint8_t var_pinValue_u8);gpio
      +                          .c: 96: {;gpio.c: 98:     uint8_t var_portNumber_u8;;gpio.c: 101:     var_portNumber_u8 
      +                          = (enm_pinNumber>>3);
  3370     0B99  0826               	movf	GPIO_PinWrite@enm_pinNumber,w
  3371     0B9A  00A3               	movwf	??_GPIO_PinWrite
  3372     0B9B  3003               	movlw	3
  3373     0B9C                     u1955:
  3374     0B9C  1003               	clrc
  3375     0B9D  0CA3               	rrf	??_GPIO_PinWrite,f
  3376     0B9E  3EFF               	addlw	-1
  3377     0B9F  1D03               	skipz
  3378     0BA0  2B9C               	goto	u1955
  3379     0BA1  0823               	movf	??_GPIO_PinWrite,w
  3380     0BA2  00A5               	movwf	GPIO_PinWrite@var_portNumber_u8
  3381     0BA3                     l2053:
  3382                           
  3383                           ;gpio.c: 102:     enm_pinNumber = enm_pinNumber & 0x07;
  3384     0BA3  0826               	movf	GPIO_PinWrite@enm_pinNumber,w
  3385     0BA4  3907               	andlw	7
  3386     0BA5  00A6               	movwf	GPIO_PinWrite@enm_pinNumber
  3387                           
  3388                           ;gpio.c: 106:     switch(var_portNumber_u8)
  3389     0BA6  2C51               	goto	l2087
  3390     0BA7                     l2055:
  3391                           
  3392                           ;gpio.c: 110:         ((var_pinValue_u8)? ((PORTA) |= (1<<(enm_pinNumber))): ((PORTA) &=
      +                           ~(1<<(enm_pinNumber))));
  3393     0BA7  0822               	movf	GPIO_PinWrite@var_pinValue_u8,w
  3394     0BA8  1903               	btfsc	3,2
  3395     0BA9  2BAB               	goto	u1961
  3396     0BAA  2BAC               	goto	u1960
  3397     0BAB                     u1961:
  3398     0BAB  2BBA               	goto	l2059
  3399     0BAC                     u1960:
  3400     0BAC                     l2057:
  3401     0BAC  3001               	movlw	1
  3402     0BAD  00A3               	movwf	??_GPIO_PinWrite
  3403     0BAE  0A26               	incf	GPIO_PinWrite@enm_pinNumber,w
  3404     0BAF  2BB2               	goto	u1974
  3405     0BB0                     u1975:
  3406     0BB0  1003               	clrc
  3407     0BB1  0DA3               	rlf	??_GPIO_PinWrite,f
  3408     0BB2                     u1974:
  3409     0BB2  3EFF               	addlw	-1
  3410     0BB3  1D03               	skipz
  3411     0BB4  2BB0               	goto	u1975
  3412     0BB5  0823               	movf	??_GPIO_PinWrite,w
  3413     0BB6  00A4               	movwf	??_GPIO_PinWrite+1
  3414     0BB7  0824               	movf	??_GPIO_PinWrite+1,w
  3415     0BB8  0485               	iorwf	5,f	;volatile
  3416     0BB9  2C6A               	goto	l269
  3417     0BBA                     l2059:
  3418     0BBA  3001               	movlw	1
  3419     0BBB  00A3               	movwf	??_GPIO_PinWrite
  3420     0BBC  0A26               	incf	GPIO_PinWrite@enm_pinNumber,w
  3421     0BBD  2BC0               	goto	u1984
  3422     0BBE                     u1985:
  3423     0BBE  1003               	clrc
  3424     0BBF  0DA3               	rlf	??_GPIO_PinWrite,f
  3425     0BC0                     u1984:
  3426     0BC0  3EFF               	addlw	-1
  3427     0BC1  1D03               	skipz
  3428     0BC2  2BBE               	goto	u1985
  3429     0BC3  0823               	movf	??_GPIO_PinWrite,w
  3430     0BC4  3AFF               	xorlw	255
  3431     0BC5  00A4               	movwf	??_GPIO_PinWrite+1
  3432     0BC6  0824               	movf	??_GPIO_PinWrite+1,w
  3433     0BC7  0585               	andwf	5,f	;volatile
  3434     0BC8  2C6A               	goto	l269
  3435     0BC9                     l2061:
  3436                           
  3437                           ;gpio.c: 116:         ((var_pinValue_u8)? ((PORTB) |= (1<<(enm_pinNumber))): ((PORTB) &=
      +                           ~(1<<(enm_pinNumber))));
  3438     0BC9  0822               	movf	GPIO_PinWrite@var_pinValue_u8,w
  3439     0BCA  1903               	btfsc	3,2
  3440     0BCB  2BCD               	goto	u1991
  3441     0BCC  2BCE               	goto	u1990
  3442     0BCD                     u1991:
  3443     0BCD  2BDC               	goto	l2065
  3444     0BCE                     u1990:
  3445     0BCE                     l2063:
  3446     0BCE  3001               	movlw	1
  3447     0BCF  00A3               	movwf	??_GPIO_PinWrite
  3448     0BD0  0A26               	incf	GPIO_PinWrite@enm_pinNumber,w
  3449     0BD1  2BD4               	goto	u2004
  3450     0BD2                     u2005:
  3451     0BD2  1003               	clrc
  3452     0BD3  0DA3               	rlf	??_GPIO_PinWrite,f
  3453     0BD4                     u2004:
  3454     0BD4  3EFF               	addlw	-1
  3455     0BD5  1D03               	skipz
  3456     0BD6  2BD2               	goto	u2005
  3457     0BD7  0823               	movf	??_GPIO_PinWrite,w
  3458     0BD8  00A4               	movwf	??_GPIO_PinWrite+1
  3459     0BD9  0824               	movf	??_GPIO_PinWrite+1,w
  3460     0BDA  0486               	iorwf	6,f	;volatile
  3461     0BDB  2C6A               	goto	l269
  3462     0BDC                     l2065:
  3463     0BDC  3001               	movlw	1
  3464     0BDD  00A3               	movwf	??_GPIO_PinWrite
  3465     0BDE  0A26               	incf	GPIO_PinWrite@enm_pinNumber,w
  3466     0BDF  2BE2               	goto	u2014
  3467     0BE0                     u2015:
  3468     0BE0  1003               	clrc
  3469     0BE1  0DA3               	rlf	??_GPIO_PinWrite,f
  3470     0BE2                     u2014:
  3471     0BE2  3EFF               	addlw	-1
  3472     0BE3  1D03               	skipz
  3473     0BE4  2BE0               	goto	u2015
  3474     0BE5  0823               	movf	??_GPIO_PinWrite,w
  3475     0BE6  3AFF               	xorlw	255
  3476     0BE7  00A4               	movwf	??_GPIO_PinWrite+1
  3477     0BE8  0824               	movf	??_GPIO_PinWrite+1,w
  3478     0BE9  0586               	andwf	6,f	;volatile
  3479     0BEA  2C6A               	goto	l269
  3480     0BEB                     l2067:
  3481                           
  3482                           ;gpio.c: 122:         ((var_pinValue_u8)? ((PORTC) |= (1<<(enm_pinNumber))): ((PORTC) &=
      +                           ~(1<<(enm_pinNumber))));
  3483     0BEB  0822               	movf	GPIO_PinWrite@var_pinValue_u8,w
  3484     0BEC  1903               	btfsc	3,2
  3485     0BED  2BEF               	goto	u2021
  3486     0BEE  2BF0               	goto	u2020
  3487     0BEF                     u2021:
  3488     0BEF  2BFE               	goto	l2071
  3489     0BF0                     u2020:
  3490     0BF0                     l2069:
  3491     0BF0  3001               	movlw	1
  3492     0BF1  00A3               	movwf	??_GPIO_PinWrite
  3493     0BF2  0A26               	incf	GPIO_PinWrite@enm_pinNumber,w
  3494     0BF3  2BF6               	goto	u2034
  3495     0BF4                     u2035:
  3496     0BF4  1003               	clrc
  3497     0BF5  0DA3               	rlf	??_GPIO_PinWrite,f
  3498     0BF6                     u2034:
  3499     0BF6  3EFF               	addlw	-1
  3500     0BF7  1D03               	skipz
  3501     0BF8  2BF4               	goto	u2035
  3502     0BF9  0823               	movf	??_GPIO_PinWrite,w
  3503     0BFA  00A4               	movwf	??_GPIO_PinWrite+1
  3504     0BFB  0824               	movf	??_GPIO_PinWrite+1,w
  3505     0BFC  0487               	iorwf	7,f	;volatile
  3506     0BFD  2C6A               	goto	l269
  3507     0BFE                     l2071:
  3508     0BFE  3001               	movlw	1
  3509     0BFF  00A3               	movwf	??_GPIO_PinWrite
  3510     0C00  0A26               	incf	GPIO_PinWrite@enm_pinNumber,w
  3511     0C01  2C04               	goto	u2044
  3512     0C02                     u2045:
  3513     0C02  1003               	clrc
  3514     0C03  0DA3               	rlf	??_GPIO_PinWrite,f
  3515     0C04                     u2044:
  3516     0C04  3EFF               	addlw	-1
  3517     0C05  1D03               	skipz
  3518     0C06  2C02               	goto	u2045
  3519     0C07  0823               	movf	??_GPIO_PinWrite,w
  3520     0C08  3AFF               	xorlw	255
  3521     0C09  00A4               	movwf	??_GPIO_PinWrite+1
  3522     0C0A  0824               	movf	??_GPIO_PinWrite+1,w
  3523     0C0B  0587               	andwf	7,f	;volatile
  3524     0C0C  2C6A               	goto	l269
  3525     0C0D                     l2073:
  3526                           
  3527                           ;gpio.c: 128:         ((var_pinValue_u8)? ((PORTD) |= (1<<(enm_pinNumber))): ((PORTD) &=
      +                           ~(1<<(enm_pinNumber))));
  3528     0C0D  0822               	movf	GPIO_PinWrite@var_pinValue_u8,w
  3529     0C0E  1903               	btfsc	3,2
  3530     0C0F  2C11               	goto	u2051
  3531     0C10  2C12               	goto	u2050
  3532     0C11                     u2051:
  3533     0C11  2C20               	goto	l2077
  3534     0C12                     u2050:
  3535     0C12                     l2075:
  3536     0C12  3001               	movlw	1
  3537     0C13  00A3               	movwf	??_GPIO_PinWrite
  3538     0C14  0A26               	incf	GPIO_PinWrite@enm_pinNumber,w
  3539     0C15  2C18               	goto	u2064
  3540     0C16                     u2065:
  3541     0C16  1003               	clrc
  3542     0C17  0DA3               	rlf	??_GPIO_PinWrite,f
  3543     0C18                     u2064:
  3544     0C18  3EFF               	addlw	-1
  3545     0C19  1D03               	skipz
  3546     0C1A  2C16               	goto	u2065
  3547     0C1B  0823               	movf	??_GPIO_PinWrite,w
  3548     0C1C  00A4               	movwf	??_GPIO_PinWrite+1
  3549     0C1D  0824               	movf	??_GPIO_PinWrite+1,w
  3550     0C1E  0488               	iorwf	8,f	;volatile
  3551     0C1F  2C6A               	goto	l269
  3552     0C20                     l2077:
  3553     0C20  3001               	movlw	1
  3554     0C21  00A3               	movwf	??_GPIO_PinWrite
  3555     0C22  0A26               	incf	GPIO_PinWrite@enm_pinNumber,w
  3556     0C23  2C26               	goto	u2074
  3557     0C24                     u2075:
  3558     0C24  1003               	clrc
  3559     0C25  0DA3               	rlf	??_GPIO_PinWrite,f
  3560     0C26                     u2074:
  3561     0C26  3EFF               	addlw	-1
  3562     0C27  1D03               	skipz
  3563     0C28  2C24               	goto	u2075
  3564     0C29  0823               	movf	??_GPIO_PinWrite,w
  3565     0C2A  3AFF               	xorlw	255
  3566     0C2B  00A4               	movwf	??_GPIO_PinWrite+1
  3567     0C2C  0824               	movf	??_GPIO_PinWrite+1,w
  3568     0C2D  0588               	andwf	8,f	;volatile
  3569     0C2E  2C6A               	goto	l269
  3570     0C2F                     l2079:
  3571                           
  3572                           ;gpio.c: 134:         ((var_pinValue_u8)? ((PORTE) |= (1<<(enm_pinNumber))): ((PORTE) &=
      +                           ~(1<<(enm_pinNumber))));
  3573     0C2F  0822               	movf	GPIO_PinWrite@var_pinValue_u8,w
  3574     0C30  1903               	btfsc	3,2
  3575     0C31  2C33               	goto	u2081
  3576     0C32  2C34               	goto	u2080
  3577     0C33                     u2081:
  3578     0C33  2C42               	goto	l2083
  3579     0C34                     u2080:
  3580     0C34                     l2081:
  3581     0C34  3001               	movlw	1
  3582     0C35  00A3               	movwf	??_GPIO_PinWrite
  3583     0C36  0A26               	incf	GPIO_PinWrite@enm_pinNumber,w
  3584     0C37  2C3A               	goto	u2094
  3585     0C38                     u2095:
  3586     0C38  1003               	clrc
  3587     0C39  0DA3               	rlf	??_GPIO_PinWrite,f
  3588     0C3A                     u2094:
  3589     0C3A  3EFF               	addlw	-1
  3590     0C3B  1D03               	skipz
  3591     0C3C  2C38               	goto	u2095
  3592     0C3D  0823               	movf	??_GPIO_PinWrite,w
  3593     0C3E  00A4               	movwf	??_GPIO_PinWrite+1
  3594     0C3F  0824               	movf	??_GPIO_PinWrite+1,w
  3595     0C40  0489               	iorwf	9,f	;volatile
  3596     0C41  2C6A               	goto	l269
  3597     0C42                     l2083:
  3598     0C42  3001               	movlw	1
  3599     0C43  00A3               	movwf	??_GPIO_PinWrite
  3600     0C44  0A26               	incf	GPIO_PinWrite@enm_pinNumber,w
  3601     0C45  2C48               	goto	u2104
  3602     0C46                     u2105:
  3603     0C46  1003               	clrc
  3604     0C47  0DA3               	rlf	??_GPIO_PinWrite,f
  3605     0C48                     u2104:
  3606     0C48  3EFF               	addlw	-1
  3607     0C49  1D03               	skipz
  3608     0C4A  2C46               	goto	u2105
  3609     0C4B  0823               	movf	??_GPIO_PinWrite,w
  3610     0C4C  3AFF               	xorlw	255
  3611     0C4D  00A4               	movwf	??_GPIO_PinWrite+1
  3612     0C4E  0824               	movf	??_GPIO_PinWrite+1,w
  3613     0C4F  0589               	andwf	9,f	;volatile
  3614     0C50  2C6A               	goto	l269
  3615     0C51                     l2087:
  3616     0C51  0825               	movf	GPIO_PinWrite@var_portNumber_u8,w
  3617     0C52  00A3               	movwf	??_GPIO_PinWrite
  3618     0C53  01A4               	clrf	??_GPIO_PinWrite+1
  3619                           
  3620                           ; Switch on 2 bytes has been partitioned into a top level switch of size 1, and 1 sub-sw
      +                          itches
  3621                           ; Switch size 1, requested type "simple"
  3622                           ; Number of cases is 1, Range of values is 0 to 0
  3623                           ; switch strategies available:
  3624                           ; Name         Instructions Cycles
  3625                           ; simple_byte            4     3 (average)
  3626                           ; direct_byte            9     7 (fixed)
  3627                           ; jumptable            260     6 (fixed)
  3628                           ;	Chosen strategy is simple_byte
  3629     0C54  0824               	movf	??_GPIO_PinWrite+1,w
  3630     0C55  3A00               	xorlw	0	; case 0
  3631     0C56  1903               	skipnz
  3632     0C57  2C59               	goto	l3033
  3633     0C58  2C6A               	goto	l269
  3634     0C59                     l3033:
  3635                           
  3636                           ; Switch size 1, requested type "simple"
  3637                           ; Number of cases is 5, Range of values is 0 to 4
  3638                           ; switch strategies available:
  3639                           ; Name         Instructions Cycles
  3640                           ; simple_byte           16     9 (average)
  3641                           ; direct_byte           17     7 (fixed)
  3642                           ; jumptable            260     6 (fixed)
  3643                           ;	Chosen strategy is simple_byte
  3644     0C59  0823               	movf	??_GPIO_PinWrite,w
  3645     0C5A  3A00               	xorlw	0	; case 0
  3646     0C5B  1903               	skipnz
  3647     0C5C  2BA7               	goto	l2055
  3648     0C5D  3A01               	xorlw	1	; case 1
  3649     0C5E  1903               	skipnz
  3650     0C5F  2BC9               	goto	l2061
  3651     0C60  3A03               	xorlw	3	; case 2
  3652     0C61  1903               	skipnz
  3653     0C62  2BEB               	goto	l2067
  3654     0C63  3A01               	xorlw	1	; case 3
  3655     0C64  1903               	skipnz
  3656     0C65  2C0D               	goto	l2073
  3657     0C66  3A07               	xorlw	7	; case 4
  3658     0C67  1903               	skipnz
  3659     0C68  2C2F               	goto	l2079
  3660     0C69  2C6A               	goto	l269
  3661     0C6A                     l269:
  3662     0C6A  0008               	return
  3663     0C6B                     __end_of_GPIO_PinWrite:
  3664                           
  3665                           	psect	text10
  3666     0742                     __ptext10:	
  3667 ;; *************** function _GPIO_PinRead *****************
  3668 ;; Defined at:
  3669 ;;		line 160 in file "gpio.c"
  3670 ;; Parameters:    Size  Location     Type
  3671 ;;  enm_pinNumbe    1    wreg     enum E790
  3672 ;; Auto vars:     Size  Location     Type
  3673 ;;  enm_pinNumbe    1    6[BANK0 ] enum E790
  3674 ;;  returnStatus    1    5[BANK0 ] unsigned char 
  3675 ;;  var_portNumb    1    4[BANK0 ] unsigned char 
  3676 ;; Return value:  Size  Location     Type
  3677 ;;                  1    wreg      unsigned char 
  3678 ;; Registers used:
  3679 ;;		wreg, fsr0l, fsr0h, status,2, status,0
  3680 ;; Tracked objects:
  3681 ;;		On entry : 0/0
  3682 ;;		On exit  : 0/0
  3683 ;;		Unchanged: 0/0
  3684 ;; Data sizes:     COMMON   BANK0   BANK1
  3685 ;;      Params:         0       0       0
  3686 ;;      Locals:         0       3       0
  3687 ;;      Temps:          0       2       0
  3688 ;;      Totals:         0       5       0
  3689 ;;Total ram usage:        5 bytes
  3690 ;; Hardware stack levels used: 1
  3691 ;; Hardware stack levels required when called: 1
  3692 ;; This function calls:
  3693 ;;		Nothing
  3694 ;; This function is called by:
  3695 ;;		_KEYPAD_GetKey
  3696 ;;		_keypad_WaitForKeyRelease
  3697 ;;		_keypad_WaitForKeyPress
  3698 ;; This function uses a non-reentrant model
  3699 ;;
  3700                           
  3701     0742                     _GPIO_PinRead:	
  3702                           ;psect for function _GPIO_PinRead
  3703                           
  3704                           
  3705                           ;incstack = 0
  3706                           ; Regs used in _GPIO_PinRead: [wreg-fsr0h+status,2+status,0]
  3707                           ;GPIO_PinRead@enm_pinNumber stored from wreg
  3708     0742  1283               	bcf	3,5	;RP0=0, select bank0
  3709     0743  1303               	bcf	3,6	;RP1=0, select bank0
  3710     0744  00A6               	movwf	GPIO_PinRead@enm_pinNumber
  3711     0745                     l2135:
  3712                           
  3713                           ;gpio.c: 160: uint8_t GPIO_PinRead(gpioPins_et enm_pinNumber);gpio.c: 161: {;gpio.c: 162
      +                          :     uint8_t var_portNumber_u8;;gpio.c: 163:     uint8_t returnStatus = 0;
  3714     0745  01A5               	clrf	GPIO_PinRead@returnStatus
  3715     0746                     l2137:
  3716                           
  3717                           ;gpio.c: 165:     var_portNumber_u8 = (enm_pinNumber>>3);
  3718     0746  0826               	movf	GPIO_PinRead@enm_pinNumber,w
  3719     0747  00A2               	movwf	??_GPIO_PinRead
  3720     0748  3003               	movlw	3
  3721     0749                     u2275:
  3722     0749  1003               	clrc
  3723     074A  0CA2               	rrf	??_GPIO_PinRead,f
  3724     074B  3EFF               	addlw	-1
  3725     074C  1D03               	skipz
  3726     074D  2F49               	goto	u2275
  3727     074E  0822               	movf	??_GPIO_PinRead,w
  3728     074F  00A4               	movwf	GPIO_PinRead@var_portNumber_u8
  3729     0750                     l2139:
  3730                           
  3731                           ;gpio.c: 166:     enm_pinNumber = enm_pinNumber & 0x07;
  3732     0750  0826               	movf	GPIO_PinRead@enm_pinNumber,w
  3733     0751  3907               	andlw	7
  3734     0752  00A6               	movwf	GPIO_PinRead@enm_pinNumber
  3735                           
  3736                           ;gpio.c: 169:     switch(var_portNumber_u8)
  3737     0753  2FB3               	goto	l2153
  3738     0754                     l2141:
  3739                           
  3740                           ;gpio.c: 173:         returnStatus = (((PORTA)&((1<<(enm_pinNumber))))!=0u);
  3741     0754  3001               	movlw	1
  3742     0755  00A2               	movwf	??_GPIO_PinRead
  3743     0756  0A26               	incf	GPIO_PinRead@enm_pinNumber,w
  3744     0757  2F5A               	goto	u2284
  3745     0758                     u2285:
  3746     0758  1003               	clrc
  3747     0759  0DA2               	rlf	??_GPIO_PinRead,f
  3748     075A                     u2284:
  3749     075A  3EFF               	addlw	-1
  3750     075B  1D03               	skipz
  3751     075C  2F58               	goto	u2285
  3752     075D  0822               	movf	??_GPIO_PinRead,w
  3753     075E  0505               	andwf	5,w	;volatile
  3754     075F  1D03               	btfss	3,2
  3755     0760  2F62               	goto	u2291
  3756     0761  2F64               	goto	u2290
  3757     0762                     u2291:
  3758     0762  3001               	movlw	1
  3759     0763  2F65               	goto	u2300
  3760     0764                     u2290:
  3761     0764  3000               	movlw	0
  3762     0765                     u2300:
  3763     0765  00A5               	movwf	GPIO_PinRead@returnStatus
  3764                           
  3765                           ;gpio.c: 174:         break;
  3766     0766  2FCC               	goto	l2155
  3767     0767                     l2143:
  3768                           
  3769                           ;gpio.c: 178:         returnStatus = (((PORTB)&((1<<(enm_pinNumber))))!=0u);
  3770     0767  3001               	movlw	1
  3771     0768  00A2               	movwf	??_GPIO_PinRead
  3772     0769  0A26               	incf	GPIO_PinRead@enm_pinNumber,w
  3773     076A  2F6D               	goto	u2314
  3774     076B                     u2315:
  3775     076B  1003               	clrc
  3776     076C  0DA2               	rlf	??_GPIO_PinRead,f
  3777     076D                     u2314:
  3778     076D  3EFF               	addlw	-1
  3779     076E  1D03               	skipz
  3780     076F  2F6B               	goto	u2315
  3781     0770  0822               	movf	??_GPIO_PinRead,w
  3782     0771  0506               	andwf	6,w	;volatile
  3783     0772  1D03               	btfss	3,2
  3784     0773  2F75               	goto	u2321
  3785     0774  2F77               	goto	u2320
  3786     0775                     u2321:
  3787     0775  3001               	movlw	1
  3788     0776  2F78               	goto	u2330
  3789     0777                     u2320:
  3790     0777  3000               	movlw	0
  3791     0778                     u2330:
  3792     0778  00A5               	movwf	GPIO_PinRead@returnStatus
  3793                           
  3794                           ;gpio.c: 179:         break;
  3795     0779  2FCC               	goto	l2155
  3796     077A                     l2145:
  3797                           
  3798                           ;gpio.c: 183:         returnStatus = (((PORTC)&((1<<(enm_pinNumber))))!=0u);
  3799     077A  3001               	movlw	1
  3800     077B  00A2               	movwf	??_GPIO_PinRead
  3801     077C  0A26               	incf	GPIO_PinRead@enm_pinNumber,w
  3802     077D  2F80               	goto	u2344
  3803     077E                     u2345:
  3804     077E  1003               	clrc
  3805     077F  0DA2               	rlf	??_GPIO_PinRead,f
  3806     0780                     u2344:
  3807     0780  3EFF               	addlw	-1
  3808     0781  1D03               	skipz
  3809     0782  2F7E               	goto	u2345
  3810     0783  0822               	movf	??_GPIO_PinRead,w
  3811     0784  0507               	andwf	7,w	;volatile
  3812     0785  1D03               	btfss	3,2
  3813     0786  2F88               	goto	u2351
  3814     0787  2F8A               	goto	u2350
  3815     0788                     u2351:
  3816     0788  3001               	movlw	1
  3817     0789  2F8B               	goto	u2360
  3818     078A                     u2350:
  3819     078A  3000               	movlw	0
  3820     078B                     u2360:
  3821     078B  00A5               	movwf	GPIO_PinRead@returnStatus
  3822                           
  3823                           ;gpio.c: 184:         break;
  3824     078C  2FCC               	goto	l2155
  3825     078D                     l2147:
  3826                           
  3827                           ;gpio.c: 189:         returnStatus = (((PORTD)&((1<<(enm_pinNumber))))!=0u);
  3828     078D  3001               	movlw	1
  3829     078E  00A2               	movwf	??_GPIO_PinRead
  3830     078F  0A26               	incf	GPIO_PinRead@enm_pinNumber,w
  3831     0790  2F93               	goto	u2374
  3832     0791                     u2375:
  3833     0791  1003               	clrc
  3834     0792  0DA2               	rlf	??_GPIO_PinRead,f
  3835     0793                     u2374:
  3836     0793  3EFF               	addlw	-1
  3837     0794  1D03               	skipz
  3838     0795  2F91               	goto	u2375
  3839     0796  0822               	movf	??_GPIO_PinRead,w
  3840     0797  0508               	andwf	8,w	;volatile
  3841     0798  1D03               	btfss	3,2
  3842     0799  2F9B               	goto	u2381
  3843     079A  2F9D               	goto	u2380
  3844     079B                     u2381:
  3845     079B  3001               	movlw	1
  3846     079C  2F9E               	goto	u2390
  3847     079D                     u2380:
  3848     079D  3000               	movlw	0
  3849     079E                     u2390:
  3850     079E  00A5               	movwf	GPIO_PinRead@returnStatus
  3851                           
  3852                           ;gpio.c: 190:         break;
  3853     079F  2FCC               	goto	l2155
  3854     07A0                     l2149:
  3855                           
  3856                           ;gpio.c: 195:         returnStatus = (((PORTE)&((1<<(enm_pinNumber))))!=0u);
  3857     07A0  3001               	movlw	1
  3858     07A1  00A2               	movwf	??_GPIO_PinRead
  3859     07A2  0A26               	incf	GPIO_PinRead@enm_pinNumber,w
  3860     07A3  2FA6               	goto	u2404
  3861     07A4                     u2405:
  3862     07A4  1003               	clrc
  3863     07A5  0DA2               	rlf	??_GPIO_PinRead,f
  3864     07A6                     u2404:
  3865     07A6  3EFF               	addlw	-1
  3866     07A7  1D03               	skipz
  3867     07A8  2FA4               	goto	u2405
  3868     07A9  0822               	movf	??_GPIO_PinRead,w
  3869     07AA  0509               	andwf	9,w	;volatile
  3870     07AB  1D03               	btfss	3,2
  3871     07AC  2FAE               	goto	u2411
  3872     07AD  2FB0               	goto	u2410
  3873     07AE                     u2411:
  3874     07AE  3001               	movlw	1
  3875     07AF  2FB1               	goto	u2420
  3876     07B0                     u2410:
  3877     07B0  3000               	movlw	0
  3878     07B1                     u2420:
  3879     07B1  00A5               	movwf	GPIO_PinRead@returnStatus
  3880                           
  3881                           ;gpio.c: 196:         break;
  3882     07B2  2FCC               	goto	l2155
  3883     07B3                     l2153:
  3884     07B3  0824               	movf	GPIO_PinRead@var_portNumber_u8,w
  3885     07B4  00A2               	movwf	??_GPIO_PinRead
  3886     07B5  01A3               	clrf	??_GPIO_PinRead+1
  3887                           
  3888                           ; Switch on 2 bytes has been partitioned into a top level switch of size 1, and 1 sub-sw
      +                          itches
  3889                           ; Switch size 1, requested type "simple"
  3890                           ; Number of cases is 1, Range of values is 0 to 0
  3891                           ; switch strategies available:
  3892                           ; Name         Instructions Cycles
  3893                           ; simple_byte            4     3 (average)
  3894                           ; direct_byte            9     7 (fixed)
  3895                           ; jumptable            260     6 (fixed)
  3896                           ;	Chosen strategy is simple_byte
  3897     07B6  0823               	movf	??_GPIO_PinRead+1,w
  3898     07B7  3A00               	xorlw	0	; case 0
  3899     07B8  1903               	skipnz
  3900     07B9  2FBB               	goto	l3035
  3901     07BA  2FCC               	goto	l2155
  3902     07BB                     l3035:
  3903                           
  3904                           ; Switch size 1, requested type "simple"
  3905                           ; Number of cases is 5, Range of values is 0 to 4
  3906                           ; switch strategies available:
  3907                           ; Name         Instructions Cycles
  3908                           ; simple_byte           16     9 (average)
  3909                           ; direct_byte           17     7 (fixed)
  3910                           ; jumptable            260     6 (fixed)
  3911                           ;	Chosen strategy is simple_byte
  3912     07BB  0822               	movf	??_GPIO_PinRead,w
  3913     07BC  3A00               	xorlw	0	; case 0
  3914     07BD  1903               	skipnz
  3915     07BE  2F54               	goto	l2141
  3916     07BF  3A01               	xorlw	1	; case 1
  3917     07C0  1903               	skipnz
  3918     07C1  2F67               	goto	l2143
  3919     07C2  3A03               	xorlw	3	; case 2
  3920     07C3  1903               	skipnz
  3921     07C4  2F7A               	goto	l2145
  3922     07C5  3A01               	xorlw	1	; case 3
  3923     07C6  1903               	skipnz
  3924     07C7  2F8D               	goto	l2147
  3925     07C8  3A07               	xorlw	7	; case 4
  3926     07C9  1903               	skipnz
  3927     07CA  2FA0               	goto	l2149
  3928     07CB  2FCC               	goto	l2155
  3929     07CC                     l2155:
  3930                           
  3931                           ;gpio.c: 198:     return returnStatus;
  3932     07CC  0825               	movf	GPIO_PinRead@returnStatus,w
  3933     07CD                     l279:
  3934     07CD  0008               	return
  3935     07CE                     __end_of_GPIO_PinRead:
  3936                           
  3937                           	psect	text11
  3938     07CE                     __ptext11:	
  3939 ;; *************** function _DELAY_ms1 *****************
  3940 ;; Defined at:
  3941 ;;		line 89 in file "main.c"
  3942 ;; Parameters:    Size  Location     Type
  3943 ;;  ms_Count        2    2[BANK0 ] unsigned int 
  3944 ;; Auto vars:     Size  Location     Type
  3945 ;;  j               2    6[BANK0 ] unsigned int 
  3946 ;;  i               2    4[BANK0 ] unsigned int 
  3947 ;; Return value:  Size  Location     Type
  3948 ;;                  1    wreg      void 
  3949 ;; Registers used:
  3950 ;;		wreg, status,2
  3951 ;; Tracked objects:
  3952 ;;		On entry : 0/0
  3953 ;;		On exit  : 0/0
  3954 ;;		Unchanged: 0/0
  3955 ;; Data sizes:     COMMON   BANK0   BANK1
  3956 ;;      Params:         0       2       0
  3957 ;;      Locals:         0       4       0
  3958 ;;      Temps:          0       0       0
  3959 ;;      Totals:         0       6       0
  3960 ;;Total ram usage:        6 bytes
  3961 ;; Hardware stack levels used: 1
  3962 ;; Hardware stack levels required when called: 1
  3963 ;; This function calls:
  3964 ;;		Nothing
  3965 ;; This function is called by:
  3966 ;;		_main
  3967 ;; This function uses a non-reentrant model
  3968 ;;
  3969                           
  3970     07CE                     _DELAY_ms1:	
  3971                           ;psect for function _DELAY_ms1
  3972                           
  3973     07CE                     l2171:	
  3974                           ;incstack = 0
  3975                           ; Regs used in _DELAY_ms1: [wreg+status,2]
  3976                           
  3977                           
  3978                           ;main.c: 89: void DELAY_ms1(unsigned int ms_Count);main.c: 90: {;main.c: 91:     unsigne
      +                          d int i, j;;main.c: 92:     for (i = 0; i < ms_Count; i++)
  3979     07CE  1283               	bcf	3,5	;RP0=0, select bank0
  3980     07CF  1303               	bcf	3,6	;RP1=0, select bank0
  3981     07D0  01A4               	clrf	DELAY_ms1@i
  3982     07D1  01A5               	clrf	DELAY_ms1@i+1
  3983     07D2  2FEA               	goto	l59
  3984     07D3                     l2173:
  3985                           
  3986                           ;main.c: 93:     {;main.c: 94:         for (j = 0; j < 100; j++);
  3987     07D3  01A6               	clrf	DELAY_ms1@j
  3988     07D4  01A7               	clrf	DELAY_ms1@j+1
  3989     07D5                     l2179:
  3990     07D5  3001               	movlw	1
  3991     07D6  07A6               	addwf	DELAY_ms1@j,f
  3992     07D7  1803               	skipnc
  3993     07D8  0AA7               	incf	DELAY_ms1@j+1,f
  3994     07D9  3000               	movlw	0
  3995     07DA  07A7               	addwf	DELAY_ms1@j+1,f
  3996     07DB  3000               	movlw	0
  3997     07DC  0227               	subwf	DELAY_ms1@j+1,w
  3998     07DD  3064               	movlw	100
  3999     07DE  1903               	skipnz
  4000     07DF  0226               	subwf	DELAY_ms1@j,w
  4001     07E0  1C03               	skipc
  4002     07E1  2FE3               	goto	u2461
  4003     07E2  2FE4               	goto	u2460
  4004     07E3                     u2461:
  4005     07E3  2FD5               	goto	l2179
  4006     07E4                     u2460:
  4007     07E4                     l2181:
  4008                           
  4009                           ;main.c: 95:     }
  4010     07E4  3001               	movlw	1
  4011     07E5  07A4               	addwf	DELAY_ms1@i,f
  4012     07E6  1803               	skipnc
  4013     07E7  0AA5               	incf	DELAY_ms1@i+1,f
  4014     07E8  3000               	movlw	0
  4015     07E9  07A5               	addwf	DELAY_ms1@i+1,f
  4016     07EA                     l59:
  4017     07EA  0823               	movf	DELAY_ms1@ms_Count+1,w
  4018     07EB  0225               	subwf	DELAY_ms1@i+1,w
  4019     07EC  1D03               	skipz
  4020     07ED  2FF0               	goto	u2475
  4021     07EE  0822               	movf	DELAY_ms1@ms_Count,w
  4022     07EF  0224               	subwf	DELAY_ms1@i,w
  4023     07F0                     u2475:
  4024     07F0  1C03               	skipc
  4025     07F1  2FF3               	goto	u2471
  4026     07F2  2FF4               	goto	u2470
  4027     07F3                     u2471:
  4028     07F3  2FD3               	goto	l2173
  4029     07F4                     u2470:
  4030     07F4                     l64:
  4031     07F4  0008               	return
  4032     07F5                     __end_of_DELAY_ms1:
  4033                           
  4034                           	psect	text12
  4035     09B0                     __ptext12:	
  4036 ;; *************** function _myIsr *****************
  4037 ;; Defined at:
  4038 ;;		line 565 in file "main.c"
  4039 ;; Parameters:    Size  Location     Type
  4040 ;;		None
  4041 ;; Auto vars:     Size  Location     Type
  4042 ;;		None
  4043 ;; Return value:  Size  Location     Type
  4044 ;;                  1    wreg      void 
  4045 ;; Registers used:
  4046 ;;		wreg, status,2, status,0
  4047 ;; Tracked objects:
  4048 ;;		On entry : 0/0
  4049 ;;		On exit  : 0/0
  4050 ;;		Unchanged: 0/0
  4051 ;; Data sizes:     COMMON   BANK0   BANK1
  4052 ;;      Params:         0       0       0
  4053 ;;      Locals:         0       0       0
  4054 ;;      Temps:          0       2       0
  4055 ;;      Totals:         0       2       0
  4056 ;;Total ram usage:        2 bytes
  4057 ;; Hardware stack levels used: 1
  4058 ;; This function calls:
  4059 ;;		Nothing
  4060 ;; This function is called by:
  4061 ;;		Interrupt level 1
  4062 ;; This function uses a non-reentrant model
  4063 ;;
  4064                           
  4065     09B0                     _myIsr:	
  4066                           ;psect for function _myIsr
  4067                           
  4068     09B0                     i1l2809:
  4069                           
  4070                           ;main.c: 567:     if(INTCONbits.INTF==1)
  4071     09B0  1C8B               	btfss	11,1	;volatile
  4072     09B1  29B3               	goto	u343_21
  4073     09B2  29B4               	goto	u343_20
  4074     09B3                     u343_21:
  4075     09B3  29C3               	goto	i1l2815
  4076     09B4                     u343_20:
  4077     09B4                     i1l2811:
  4078                           
  4079                           ;main.c: 568:     {;main.c: 569:         cnt++;
  4080     09B4  3001               	movlw	1
  4081     09B5  07DE               	addwf	_cnt,f
  4082     09B6  3000               	movlw	0
  4083     09B7  1803               	skipnc
  4084     09B8  3001               	movlw	1
  4085     09B9  07DF               	addwf	_cnt+1,f
  4086     09BA  3000               	movlw	0
  4087     09BB  1803               	skipnc
  4088     09BC  3001               	movlw	1
  4089     09BD  07E0               	addwf	_cnt+2,f
  4090     09BE  3000               	movlw	0
  4091     09BF  1803               	skipnc
  4092     09C0  3001               	movlw	1
  4093     09C1  07E1               	addwf	_cnt+3,f
  4094     09C2                     i1l2813:
  4095                           
  4096                           ;main.c: 570:         INTCONbits.INTF=0;
  4097     09C2  108B               	bcf	11,1	;volatile
  4098     09C3                     i1l2815:
  4099                           
  4100                           ;main.c: 572:     if(INTCONbits.TMR0IF==1)
  4101     09C3  1D0B               	btfss	11,2	;volatile
  4102     09C4  29C6               	goto	u344_21
  4103     09C5  29C7               	goto	u344_20
  4104     09C6                     u344_21:
  4105     09C6  29F6               	goto	i1l171
  4106     09C7                     u344_20:
  4107     09C7                     i1l2817:
  4108                           
  4109                           ;main.c: 573:     {;main.c: 574:         timer0_cnt++;
  4110     09C7  3001               	movlw	1
  4111     09C8  07E6               	addwf	_timer0_cnt,f
  4112     09C9  1803               	skipnc
  4113     09CA  0AE7               	incf	_timer0_cnt+1,f
  4114     09CB  3000               	movlw	0
  4115     09CC  07E7               	addwf	_timer0_cnt+1,f
  4116                           
  4117                           ;main.c: 575:         seg_blink_cnt++;
  4118     09CD  3001               	movlw	1
  4119     09CE  07E4               	addwf	_seg_blink_cnt,f
  4120     09CF  1803               	skipnc
  4121     09D0  0AE5               	incf	_seg_blink_cnt+1,f
  4122     09D1  3000               	movlw	0
  4123     09D2  07E5               	addwf	_seg_blink_cnt+1,f
  4124                           
  4125                           ;main.c: 576:         if(seg_blink_cnt>=50)
  4126     09D3  3000               	movlw	0
  4127     09D4  0265               	subwf	_seg_blink_cnt+1,w
  4128     09D5  3032               	movlw	50
  4129     09D6  1903               	skipnz
  4130     09D7  0264               	subwf	_seg_blink_cnt,w
  4131     09D8  1C03               	skipc
  4132     09D9  29DB               	goto	u345_21
  4133     09DA  29DC               	goto	u345_20
  4134     09DB                     u345_21:
  4135     09DB  29E6               	goto	i1l2823
  4136     09DC                     u345_20:
  4137     09DC                     i1l2819:
  4138                           
  4139                           ;main.c: 577:         {;main.c: 578:             seg_blink_cnt=0;
  4140     09DC  01E4               	clrf	_seg_blink_cnt
  4141     09DD  01E5               	clrf	_seg_blink_cnt+1
  4142     09DE                     i1l2821:
  4143                           
  4144                           ;main.c: 579:             blink_seg_f=!blink_seg_f;
  4145     09DE  0868               	movf	_blink_seg_f,w
  4146     09DF  1903               	btfsc	3,2
  4147     09E0  29E2               	goto	u346_21
  4148     09E1  29E4               	goto	u346_20
  4149     09E2                     u346_21:
  4150     09E2  3001               	movlw	1
  4151     09E3  29E5               	goto	u347_20
  4152     09E4                     u346_20:
  4153     09E4  3000               	movlw	0
  4154     09E5                     u347_20:
  4155     09E5  00E8               	movwf	_blink_seg_f
  4156     09E6                     i1l2823:
  4157                           
  4158                           ;main.c: 582:         if(timer0_cnt>=10)
  4159     09E6  3000               	movlw	0
  4160     09E7  0267               	subwf	_timer0_cnt+1,w
  4161     09E8  300A               	movlw	10
  4162     09E9  1903               	skipnz
  4163     09EA  0266               	subwf	_timer0_cnt,w
  4164     09EB  1C03               	skipc
  4165     09EC  29EE               	goto	u348_21
  4166     09ED  29EF               	goto	u348_20
  4167     09EE                     u348_21:
  4168     09EE  29F3               	goto	i1l2829
  4169     09EF                     u348_20:
  4170     09EF                     i1l2825:
  4171                           
  4172                           ;main.c: 583:         {;main.c: 584:             timer0_cnt=0;
  4173     09EF  01E6               	clrf	_timer0_cnt
  4174     09F0  01E7               	clrf	_timer0_cnt+1
  4175     09F1                     i1l2827:
  4176                           
  4177                           ;main.c: 585:             get_key_f=1;
  4178     09F1  01EC               	clrf	_get_key_f
  4179     09F2  0AEC               	incf	_get_key_f,f
  4180     09F3                     i1l2829:
  4181                           
  4182                           ;main.c: 587:         TMR0 = 101;
  4183     09F3  3065               	movlw	101
  4184     09F4  0081               	movwf	1	;volatile
  4185     09F5                     i1l2831:
  4186                           
  4187                           ;main.c: 588:         INTCONbits.TMR0IF=0;
  4188     09F5  110B               	bcf	11,2	;volatile
  4189     09F6                     i1l171:
  4190     09F6  0821               	movf	??_myIsr+1,w
  4191     09F7  008A               	movwf	10
  4192     09F8  0E20               	swapf	??_myIsr,w
  4193     09F9  0083               	movwf	3
  4194     09FA  0EFE               	swapf	btemp,f
  4195     09FB  0E7E               	swapf	btemp,w
  4196     09FC  0009               	retfie
  4197     09FD                     __end_of_myIsr:
  4198     007E                     btemp	set	126	;btemp
  4199     007E                     wtemp0	set	126
  4200                           
  4201                           	psect	intentry
  4202     0004                     __pintentry:	
  4203                           ;incstack = 0
  4204                           ; Regs used in _myIsr: [wreg+status,2+status,0]
  4205                           
  4206     0004                     interrupt_function:
  4207     007E                     saved_w	set	btemp
  4208     0004  00FE               	movwf	btemp
  4209     0005  0E03               	swapf	3,w
  4210     0006  1283               	bcf	3,5	;RP0=0, select bank0
  4211     0007  1303               	bcf	3,6	;RP1=0, select bank0
  4212     0008  00A0               	movwf	??_myIsr
  4213     0009  080A               	movf	10,w
  4214     000A  00A1               	movwf	??_myIsr+1
  4215     000B  158A  29B0         	ljmp	_myIsr
  4216                           
  4217                           	psect	idloc
  4218                           
  4219                           ;Config register IDLOC0 @ 0x2000
  4220                           ;	unspecified, using default values
  4221     2000                     	org	8192
  4222     2000  3FFF               	dw	16383
  4223                           
  4224                           ;Config register IDLOC1 @ 0x2001
  4225                           ;	unspecified, using default values
  4226     2001                     	org	8193
  4227     2001  3FFF               	dw	16383
  4228                           
  4229                           ;Config register IDLOC2 @ 0x2002
  4230                           ;	unspecified, using default values
  4231     2002                     	org	8194
  4232     2002  3FFF               	dw	16383
  4233                           
  4234                           ;Config register IDLOC3 @ 0x2003
  4235                           ;	unspecified, using default values
  4236     2003                     	org	8195
  4237     2003  3FFF               	dw	16383
  4238                           
  4239                           	psect	config
  4240                           
  4241                           ;Config register CONFIG @ 0x2007
  4242                           ;	Oscillator Selection bits
  4243                           ;	FOSC = HS, HS oscillator
  4244                           ;	Watchdog Timer Enable bit
  4245                           ;	WDTE = OFF, WDT disabled
  4246                           ;	Power-up Timer Enable bit
  4247                           ;	PWRTE = OFF, PWRT disabled
  4248                           ;	FLASH Program Memory Code Protection bits
  4249                           ;	CP = OFF, Code protection off
  4250                           ;	Brown-out Reset Enable bit
  4251                           ;	BOREN = ON, BOR enabled
  4252                           ;	Low Voltage In-Circuit Serial Programming Enable bit
  4253                           ;	LVP = OFF, RB3 is digital I/O, HV on MCLR must be used for programming
  4254                           ;	Data EE Memory Code Protection
  4255                           ;	CPD = OFF, Code Protection off
  4256                           ;	FLASH Program Memory Write Enable
  4257                           ;	WRT = ON, Unprotected program memory may be written to by EECON control
  4258                           ;	In-Circuit Debugger Mode bit
  4259                           ;	DEBUG = 0x1, unprogrammed default
  4260     2007                     	org	8199
  4261     2007  3F7A               	dw	16250
  4262                           
  4263                           	psect	maintext_split_1
  4264     0024                     u2810:
  4265     0024                     l2507:
  4266                           
  4267                           ;main.c: 314:             {;main.c: 315:                 if(get_key_f==1)
  4268     0024  036C               	decf	_get_key_f,w
  4269     0025  1D03               	btfss	3,2
  4270     0026  2828               	goto	u2821
  4271     0027  2829               	goto	u2820
  4272     0028                     u2821:
  4273     0028  2854               	goto	l2523
  4274     0029                     u2820:
  4275     0029                     l2509:
  4276                           
  4277                           ;main.c: 316:                 {;main.c: 317:                     key = KEYPAD_GetKey();
  4278     0029  158A  2319  118A   	fcall	_KEYPAD_GetKey
  4279     002C  1283               	bcf	3,5	;RP0=0, select bank0
  4280     002D  1303               	bcf	3,6	;RP1=0, select bank0
  4281     002E  00CD               	movwf	main@key
  4282     002F                     l2511:
  4283                           
  4284                           ;main.c: 318:                     get_key_f=0;
  4285     002F  01EC               	clrf	_get_key_f
  4286     0030                     l2513:
  4287                           
  4288                           ;main.c: 319:                     if((key>=0x30&&key<=0x39)||(key>=0x41&&key<=0x46))
  4289     0030  3030               	movlw	48
  4290     0031  024D               	subwf	main@key,w
  4291     0032  1C03               	skipc
  4292     0033  2835               	goto	u2831
  4293     0034  2836               	goto	u2830
  4294     0035                     u2831:
  4295     0035  283C               	goto	l2517
  4296     0036                     u2830:
  4297     0036                     l2515:
  4298     0036  303A               	movlw	58
  4299     0037  024D               	subwf	main@key,w
  4300     0038  1C03               	skipc
  4301     0039  283B               	goto	u2841
  4302     003A  283C               	goto	u2840
  4303     003B                     u2841:
  4304     003B  2848               	goto	l2521
  4305     003C                     u2840:
  4306     003C                     l2517:
  4307     003C  3041               	movlw	65
  4308     003D  024D               	subwf	main@key,w
  4309     003E  1C03               	skipc
  4310     003F  2841               	goto	u2851
  4311     0040  2842               	goto	u2850
  4312     0041                     u2851:
  4313     0041  2854               	goto	l2523
  4314     0042                     u2850:
  4315     0042                     l2519:
  4316     0042  3047               	movlw	71
  4317     0043  024D               	subwf	main@key,w
  4318     0044  1803               	skipnc
  4319     0045  2847               	goto	u2861
  4320     0046  2848               	goto	u2860
  4321     0047                     u2861:
  4322     0047  2854               	goto	l2523
  4323     0048                     u2860:
  4324     0048                     l2521:
  4325                           
  4326                           ;main.c: 320:                     {;main.c: 321:                         UART_TxChar(key
      +                          );
  4327     0048  084D               	movf	main@key,w
  4328     0049  118A  27F5  118A   	fcall	_UART_TxChar
  4329                           
  4330                           ;main.c: 322:                         UART_TxChar('\r');
  4331     004C  300D               	movlw	13
  4332     004D  118A  27F5  118A   	fcall	_UART_TxChar
  4333                           
  4334                           ;main.c: 323:                         UART_TxChar('\n');
  4335     0050  300A               	movlw	10
  4336     0051  118A  27F5  118A   	fcall	_UART_TxChar
  4337     0054                     l2523:
  4338                           
  4339                           ;main.c: 327:                 if(cnt>=set_cnt)
  4340     0054  1283               	bcf	3,5	;RP0=0, select bank0
  4341     0055  1303               	bcf	3,6	;RP1=0, select bank0
  4342     0056  085D               	movf	_set_cnt+3,w
  4343     0057  0261               	subwf	_cnt+3,w
  4344     0058  1D03               	skipz
  4345     0059  2864               	goto	u2875
  4346     005A  085C               	movf	_set_cnt+2,w
  4347     005B  0260               	subwf	_cnt+2,w
  4348     005C  1D03               	skipz
  4349     005D  2864               	goto	u2875
  4350     005E  085B               	movf	_set_cnt+1,w
  4351     005F  025F               	subwf	_cnt+1,w
  4352     0060  1D03               	skipz
  4353     0061  2864               	goto	u2875
  4354     0062  085A               	movf	_set_cnt,w
  4355     0063  025E               	subwf	_cnt,w
  4356     0064                     u2875:
  4357     0064  1C03               	skipc
  4358     0065  2867               	goto	u2871
  4359     0066  2868               	goto	u2870
  4360     0067                     u2871:
  4361     0067  287B               	goto	l103
  4362     0068                     u2870:
  4363     0068                     l2525:
  4364                           
  4365                           ;main.c: 328:                 {;main.c: 330:                     TRISBbits.TRISB0 =0;
  4366     0068  1683               	bsf	3,5	;RP0=1, select bank1
  4367     0069  1303               	bcf	3,6	;RP1=0, select bank1
  4368     006A  1006               	bcf	6,0	;volatile
  4369                           
  4370                           ;main.c: 331:                     INTCONbits.INTE=0;
  4371     006B  120B               	bcf	11,4	;volatile
  4372     006C                     l2527:
  4373                           
  4374                           ;main.c: 334:                     set_cnt=0;
  4375     006C  3000               	movlw	0
  4376     006D  1283               	bcf	3,5	;RP0=0, select bank0
  4377     006E  1303               	bcf	3,6	;RP1=0, select bank0
  4378     006F  00DD               	movwf	_set_cnt+3
  4379     0070  3000               	movlw	0
  4380     0071  00DC               	movwf	_set_cnt+2
  4381     0072  3000               	movlw	0
  4382     0073  00DB               	movwf	_set_cnt+1
  4383     0074  3000               	movlw	0
  4384     0075  00DA               	movwf	_set_cnt
  4385     0076                     l2529:
  4386                           
  4387                           ;main.c: 335:                     RE1=0;
  4388     0076  1089               	bcf	9,1	;volatile
  4389     0077                     l2531:
  4390                           
  4391                           ;main.c: 336:                     RE0=0;
  4392     0077  1009               	bcf	9,0	;volatile
  4393     0078                     l2533:
  4394                           
  4395                           ;main.c: 337:                     counter_mode1=0;
  4396     0078  01EB               	clrf	_counter_mode1
  4397     0079                     l2535:
  4398                           
  4399                           ;main.c: 338:                     counter_mode2=0;
  4400     0079  01EA               	clrf	_counter_mode2
  4401     007A                     l2537:
  4402                           
  4403                           ;main.c: 339:                     INTCONbits.INTE=0;
  4404     007A  120B               	bcf	11,4	;volatile
  4405     007B                     l103:	
  4406                           ;main.c: 341:                 }
  4407                           
  4408                           
  4409                           ;main.c: 343:                 num = cnt;
  4410     007B  0861               	movf	_cnt+3,w
  4411     007C  00D1               	movwf	main@num+3
  4412     007D  0860               	movf	_cnt+2,w
  4413     007E  00D0               	movwf	main@num+2
  4414     007F  085F               	movf	_cnt+1,w
  4415     0080  00CF               	movwf	main@num+1
  4416     0081  085E               	movf	_cnt,w
  4417     0082  00CE               	movwf	main@num
  4418     0083                     l2539:
  4419                           
  4420                           ;main.c: 344:                 temp = num / 10000;
  4421     0083  3000               	movlw	0
  4422     0084  00A5               	movwf	___lldiv@divisor+3
  4423     0085  3000               	movlw	0
  4424     0086  00A4               	movwf	___lldiv@divisor+2
  4425     0087  3027               	movlw	39
  4426     0088  00A3               	movwf	___lldiv@divisor+1
  4427     0089  3010               	movlw	16
  4428     008A  00A2               	movwf	___lldiv@divisor
  4429     008B  0851               	movf	main@num+3,w
  4430     008C  00A9               	movwf	___lldiv@dividend+3
  4431     008D  0850               	movf	main@num+2,w
  4432     008E  00A8               	movwf	___lldiv@dividend+2
  4433     008F  084F               	movf	main@num+1,w
  4434     0090  00A7               	movwf	___lldiv@dividend+1
  4435     0091  084E               	movf	main@num,w
  4436     0092  00A6               	movwf	___lldiv@dividend
  4437     0093  158A  22B1  118A   	fcall	___lldiv
  4438     0096  1283               	bcf	3,5	;RP0=0, select bank0
  4439     0097  1303               	bcf	3,6	;RP1=0, select bank0
  4440     0098  0823               	movf	?___lldiv+1,w
  4441     0099  00CC               	movwf	main@temp+1
  4442     009A  0822               	movf	?___lldiv,w
  4443     009B  00CB               	movwf	main@temp
  4444     009C                     l2541:
  4445                           
  4446                           ;main.c: 345:                 num = num % 10000;
  4447     009C  3000               	movlw	0
  4448     009D  00A5               	movwf	___llmod@divisor+3
  4449     009E  3000               	movlw	0
  4450     009F  00A4               	movwf	___llmod@divisor+2
  4451     00A0  3027               	movlw	39
  4452     00A1  00A3               	movwf	___llmod@divisor+1
  4453     00A2  3010               	movlw	16
  4454     00A3  00A2               	movwf	___llmod@divisor
  4455     00A4  0851               	movf	main@num+3,w
  4456     00A5  00A9               	movwf	___llmod@dividend+3
  4457     00A6  0850               	movf	main@num+2,w
  4458     00A7  00A8               	movwf	___llmod@dividend+2
  4459     00A8  084F               	movf	main@num+1,w
  4460     00A9  00A7               	movwf	___llmod@dividend+1
  4461     00AA  084E               	movf	main@num,w
  4462     00AB  00A6               	movwf	___llmod@dividend
  4463     00AC  158A  21FD  118A   	fcall	___llmod
  4464     00AF  1283               	bcf	3,5	;RP0=0, select bank0
  4465     00B0  1303               	bcf	3,6	;RP1=0, select bank0
  4466     00B1  0825               	movf	?___llmod+3,w
  4467     00B2  00D1               	movwf	main@num+3
  4468     00B3  0824               	movf	?___llmod+2,w
  4469     00B4  00D0               	movwf	main@num+2
  4470     00B5  0823               	movf	?___llmod+1,w
  4471     00B6  00CF               	movwf	main@num+1
  4472     00B7  0822               	movf	?___llmod,w
  4473     00B8  00CE               	movwf	main@num
  4474                           
  4475                           ;main.c: 346:                 PORTB = 0x02;
  4476     00B9  3002               	movlw	2
  4477     00BA  0086               	movwf	6	;volatile
  4478     00BB                     l2543:
  4479                           
  4480                           ;main.c: 347:                 PORTD = seg_code[temp];
  4481     00BB  084B               	movf	main@temp,w
  4482     00BC  3E41               	addlw	(low (main@seg_code| 0))& (0+255)
  4483     00BD  0084               	movwf	4
  4484     00BE  1383               	bcf	3,7	;select IRP bank0
  4485     00BF  0800               	movf	0,w
  4486     00C0  0088               	movwf	8	;volatile
  4487     00C1                     l2545:
  4488                           
  4489                           ;main.c: 348:                 DELAY_ms1(1);
  4490     00C1  3001               	movlw	1
  4491     00C2  00A2               	movwf	DELAY_ms1@ms_Count
  4492     00C3  3000               	movlw	0
  4493     00C4  00A3               	movwf	DELAY_ms1@ms_Count+1
  4494     00C5  118A  27CE  118A   	fcall	_DELAY_ms1
  4495     00C8                     l2547:
  4496                           
  4497                           ;main.c: 350:                 temp = num / 1000;
  4498     00C8  3000               	movlw	0
  4499     00C9  1283               	bcf	3,5	;RP0=0, select bank0
  4500     00CA  1303               	bcf	3,6	;RP1=0, select bank0
  4501     00CB  00A5               	movwf	___lldiv@divisor+3
  4502     00CC  3000               	movlw	0
  4503     00CD  00A4               	movwf	___lldiv@divisor+2
  4504     00CE  3003               	movlw	3
  4505     00CF  00A3               	movwf	___lldiv@divisor+1
  4506     00D0  30E8               	movlw	232
  4507     00D1  00A2               	movwf	___lldiv@divisor
  4508     00D2  0851               	movf	main@num+3,w
  4509     00D3  00A9               	movwf	___lldiv@dividend+3
  4510     00D4  0850               	movf	main@num+2,w
  4511     00D5  00A8               	movwf	___lldiv@dividend+2
  4512     00D6  084F               	movf	main@num+1,w
  4513     00D7  00A7               	movwf	___lldiv@dividend+1
  4514     00D8  084E               	movf	main@num,w
  4515     00D9  00A6               	movwf	___lldiv@dividend
  4516     00DA  158A  22B1  118A   	fcall	___lldiv
  4517     00DD  1283               	bcf	3,5	;RP0=0, select bank0
  4518     00DE  1303               	bcf	3,6	;RP1=0, select bank0
  4519     00DF  0823               	movf	?___lldiv+1,w
  4520     00E0  00CC               	movwf	main@temp+1
  4521     00E1  0822               	movf	?___lldiv,w
  4522     00E2  00CB               	movwf	main@temp
  4523     00E3                     l2549:
  4524                           
  4525                           ;main.c: 351:                 num = num % 1000;
  4526     00E3  3000               	movlw	0
  4527     00E4  00A5               	movwf	___llmod@divisor+3
  4528     00E5  3000               	movlw	0
  4529     00E6  00A4               	movwf	___llmod@divisor+2
  4530     00E7  3003               	movlw	3
  4531     00E8  00A3               	movwf	___llmod@divisor+1
  4532     00E9  30E8               	movlw	232
  4533     00EA  00A2               	movwf	___llmod@divisor
  4534     00EB  0851               	movf	main@num+3,w
  4535     00EC  00A9               	movwf	___llmod@dividend+3
  4536     00ED  0850               	movf	main@num+2,w
  4537     00EE  00A8               	movwf	___llmod@dividend+2
  4538     00EF  084F               	movf	main@num+1,w
  4539     00F0  00A7               	movwf	___llmod@dividend+1
  4540     00F1  084E               	movf	main@num,w
  4541     00F2  00A6               	movwf	___llmod@dividend
  4542     00F3  158A  21FD  118A   	fcall	___llmod
  4543     00F6  1283               	bcf	3,5	;RP0=0, select bank0
  4544     00F7  1303               	bcf	3,6	;RP1=0, select bank0
  4545     00F8  0825               	movf	?___llmod+3,w
  4546     00F9  00D1               	movwf	main@num+3
  4547     00FA  0824               	movf	?___llmod+2,w
  4548     00FB  00D0               	movwf	main@num+2
  4549     00FC  0823               	movf	?___llmod+1,w
  4550     00FD  00CF               	movwf	main@num+1
  4551     00FE  0822               	movf	?___llmod,w
  4552     00FF  00CE               	movwf	main@num
  4553     0100                     l2551:
  4554                           
  4555                           ;main.c: 352:                 PORTB = 0x04;
  4556     0100  3004               	movlw	4
  4557     0101  0086               	movwf	6	;volatile
  4558     0102                     l2553:
  4559                           
  4560                           ;main.c: 353:                 PORTD = seg_code[temp];
  4561     0102  084B               	movf	main@temp,w
  4562     0103  3E41               	addlw	(low (main@seg_code| 0))& (0+255)
  4563     0104  0084               	movwf	4
  4564     0105  1383               	bcf	3,7	;select IRP bank0
  4565     0106  0800               	movf	0,w
  4566     0107  0088               	movwf	8	;volatile
  4567                           
  4568                           ;main.c: 354:                 DELAY_ms1(1);
  4569     0108  3001               	movlw	1
  4570     0109  00A2               	movwf	DELAY_ms1@ms_Count
  4571     010A  3000               	movlw	0
  4572     010B  00A3               	movwf	DELAY_ms1@ms_Count+1
  4573     010C  118A  27CE  118A   	fcall	_DELAY_ms1
  4574                           
  4575                           ;main.c: 356:                 temp = num / 100;
  4576     010F  3000               	movlw	0
  4577     0110  1283               	bcf	3,5	;RP0=0, select bank0
  4578     0111  1303               	bcf	3,6	;RP1=0, select bank0
  4579     0112  00A5               	movwf	___lldiv@divisor+3
  4580     0113  3000               	movlw	0
  4581     0114  00A4               	movwf	___lldiv@divisor+2
  4582     0115  3000               	movlw	0
  4583     0116  00A3               	movwf	___lldiv@divisor+1
  4584     0117  3064               	movlw	100
  4585     0118  00A2               	movwf	___lldiv@divisor
  4586     0119  0851               	movf	main@num+3,w
  4587     011A  00A9               	movwf	___lldiv@dividend+3
  4588     011B  0850               	movf	main@num+2,w
  4589     011C  00A8               	movwf	___lldiv@dividend+2
  4590     011D  084F               	movf	main@num+1,w
  4591     011E  00A7               	movwf	___lldiv@dividend+1
  4592     011F  084E               	movf	main@num,w
  4593     0120  00A6               	movwf	___lldiv@dividend
  4594     0121  158A  22B1  118A   	fcall	___lldiv
  4595     0124  1283               	bcf	3,5	;RP0=0, select bank0
  4596     0125  1303               	bcf	3,6	;RP1=0, select bank0
  4597     0126  0823               	movf	?___lldiv+1,w
  4598     0127  00CC               	movwf	main@temp+1
  4599     0128  0822               	movf	?___lldiv,w
  4600     0129  00CB               	movwf	main@temp
  4601                           
  4602                           ;main.c: 357:                 num = num % 100;
  4603     012A  3000               	movlw	0
  4604     012B  00A5               	movwf	___llmod@divisor+3
  4605     012C  3000               	movlw	0
  4606     012D  00A4               	movwf	___llmod@divisor+2
  4607     012E  3000               	movlw	0
  4608     012F  00A3               	movwf	___llmod@divisor+1
  4609     0130  3064               	movlw	100
  4610     0131  00A2               	movwf	___llmod@divisor
  4611     0132  0851               	movf	main@num+3,w
  4612     0133  00A9               	movwf	___llmod@dividend+3
  4613     0134  0850               	movf	main@num+2,w
  4614     0135  00A8               	movwf	___llmod@dividend+2
  4615     0136  084F               	movf	main@num+1,w
  4616     0137  00A7               	movwf	___llmod@dividend+1
  4617     0138  084E               	movf	main@num,w
  4618     0139  00A6               	movwf	___llmod@dividend
  4619     013A  158A  21FD  118A   	fcall	___llmod
  4620     013D  1283               	bcf	3,5	;RP0=0, select bank0
  4621     013E  1303               	bcf	3,6	;RP1=0, select bank0
  4622     013F  0825               	movf	?___llmod+3,w
  4623     0140  00D1               	movwf	main@num+3
  4624     0141  0824               	movf	?___llmod+2,w
  4625     0142  00D0               	movwf	main@num+2
  4626     0143  0823               	movf	?___llmod+1,w
  4627     0144  00CF               	movwf	main@num+1
  4628     0145  0822               	movf	?___llmod,w
  4629     0146  00CE               	movwf	main@num
  4630     0147                     l2555:
  4631                           
  4632                           ;main.c: 358:                 PORTB = 0x08;
  4633     0147  3008               	movlw	8
  4634     0148  0086               	movwf	6	;volatile
  4635     0149                     l2557:
  4636                           
  4637                           ;main.c: 359:                 PORTD = seg_code[temp];
  4638     0149  084B               	movf	main@temp,w
  4639     014A  3E41               	addlw	(low (main@seg_code| 0))& (0+255)
  4640     014B  0084               	movwf	4
  4641     014C  1383               	bcf	3,7	;select IRP bank0
  4642     014D  0800               	movf	0,w
  4643     014E  0088               	movwf	8	;volatile
  4644     014F                     l2559:
  4645                           
  4646                           ;main.c: 360:                 DELAY_ms1(1);
  4647     014F  3001               	movlw	1
  4648     0150  00A2               	movwf	DELAY_ms1@ms_Count
  4649     0151  3000               	movlw	0
  4650     0152  00A3               	movwf	DELAY_ms1@ms_Count+1
  4651     0153  118A  27CE  118A   	fcall	_DELAY_ms1
  4652     0156                     l2561:
  4653                           
  4654                           ;main.c: 362:                 temp = num / 10;
  4655     0156  3000               	movlw	0
  4656     0157  1283               	bcf	3,5	;RP0=0, select bank0
  4657     0158  1303               	bcf	3,6	;RP1=0, select bank0
  4658     0159  00A5               	movwf	___lldiv@divisor+3
  4659     015A  3000               	movlw	0
  4660     015B  00A4               	movwf	___lldiv@divisor+2
  4661     015C  3000               	movlw	0
  4662     015D  00A3               	movwf	___lldiv@divisor+1
  4663     015E  300A               	movlw	10
  4664     015F  00A2               	movwf	___lldiv@divisor
  4665     0160  0851               	movf	main@num+3,w
  4666     0161  00A9               	movwf	___lldiv@dividend+3
  4667     0162  0850               	movf	main@num+2,w
  4668     0163  00A8               	movwf	___lldiv@dividend+2
  4669     0164  084F               	movf	main@num+1,w
  4670     0165  00A7               	movwf	___lldiv@dividend+1
  4671     0166  084E               	movf	main@num,w
  4672     0167  00A6               	movwf	___lldiv@dividend
  4673     0168  158A  22B1  118A   	fcall	___lldiv
  4674     016B  1283               	bcf	3,5	;RP0=0, select bank0
  4675     016C  1303               	bcf	3,6	;RP1=0, select bank0
  4676     016D  0823               	movf	?___lldiv+1,w
  4677     016E  00CC               	movwf	main@temp+1
  4678     016F  0822               	movf	?___lldiv,w
  4679     0170  00CB               	movwf	main@temp
  4680     0171                     l2563:
  4681                           
  4682                           ;main.c: 363:                 PORTB = 0x10;
  4683     0171  3010               	movlw	16
  4684     0172  0086               	movwf	6	;volatile
  4685     0173                     l2565:
  4686                           
  4687                           ;main.c: 364:                 PORTD = seg_code[temp];
  4688     0173  084B               	movf	main@temp,w
  4689     0174  3E41               	addlw	(low (main@seg_code| 0))& (0+255)
  4690     0175  0084               	movwf	4
  4691     0176  1383               	bcf	3,7	;select IRP bank0
  4692     0177  0800               	movf	0,w
  4693     0178  0088               	movwf	8	;volatile
  4694                           
  4695                           ;main.c: 365:                 DELAY_ms1(1);
  4696     0179  3001               	movlw	1
  4697     017A  00A2               	movwf	DELAY_ms1@ms_Count
  4698     017B  3000               	movlw	0
  4699     017C  00A3               	movwf	DELAY_ms1@ms_Count+1
  4700     017D  118A  27CE  118A   	fcall	_DELAY_ms1
  4701                           
  4702                           ;main.c: 367:                 temp = num % 10;
  4703     0180  3000               	movlw	0
  4704     0181  1283               	bcf	3,5	;RP0=0, select bank0
  4705     0182  1303               	bcf	3,6	;RP1=0, select bank0
  4706     0183  00A5               	movwf	___llmod@divisor+3
  4707     0184  3000               	movlw	0
  4708     0185  00A4               	movwf	___llmod@divisor+2
  4709     0186  3000               	movlw	0
  4710     0187  00A3               	movwf	___llmod@divisor+1
  4711     0188  300A               	movlw	10
  4712     0189  00A2               	movwf	___llmod@divisor
  4713     018A  0851               	movf	main@num+3,w
  4714     018B  00A9               	movwf	___llmod@dividend+3
  4715     018C  0850               	movf	main@num+2,w
  4716     018D  00A8               	movwf	___llmod@dividend+2
  4717     018E  084F               	movf	main@num+1,w
  4718     018F  00A7               	movwf	___llmod@dividend+1
  4719     0190  084E               	movf	main@num,w
  4720     0191  00A6               	movwf	___llmod@dividend
  4721     0192  158A  21FD  118A   	fcall	___llmod
  4722     0195  1283               	bcf	3,5	;RP0=0, select bank0
  4723     0196  1303               	bcf	3,6	;RP1=0, select bank0
  4724     0197  0823               	movf	?___llmod+1,w
  4725     0198  00CC               	movwf	main@temp+1
  4726     0199  0822               	movf	?___llmod,w
  4727     019A  00CB               	movwf	main@temp
  4728     019B                     l2567:
  4729                           
  4730                           ;main.c: 368:                 PORTB = 0x20;
  4731     019B  3020               	movlw	32
  4732     019C  0086               	movwf	6	;volatile
  4733     019D                     l2569:
  4734                           
  4735                           ;main.c: 369:                 PORTD = seg_code[temp];
  4736     019D  084B               	movf	main@temp,w
  4737     019E  3E41               	addlw	(low (main@seg_code| 0))& (0+255)
  4738     019F  0084               	movwf	4
  4739     01A0  1383               	bcf	3,7	;select IRP bank0
  4740     01A1  0800               	movf	0,w
  4741     01A2  0088               	movwf	8	;volatile
  4742     01A3                     l2571:
  4743                           
  4744                           ;main.c: 370:                 DELAY_ms1(1);
  4745     01A3  3001               	movlw	1
  4746     01A4  00A2               	movwf	DELAY_ms1@ms_Count
  4747     01A5  3000               	movlw	0
  4748     01A6  00A3               	movwf	DELAY_ms1@ms_Count+1
  4749     01A7  118A  27CE  118A   	fcall	_DELAY_ms1
  4750     01AA                     l2573:
  4751                           
  4752                           ;main.c: 371:                 if(key=='3')
  4753     01AA  3033               	movlw	51
  4754     01AB  1283               	bcf	3,5	;RP0=0, select bank0
  4755     01AC  1303               	bcf	3,6	;RP1=0, select bank0
  4756     01AD  064D               	xorwf	main@key,w
  4757     01AE  1D03               	btfss	3,2
  4758     01AF  29B1               	goto	u2881
  4759     01B0  29B2               	goto	u2880
  4760     01B1                     u2881:
  4761     01B1  2824               	goto	l2507
  4762     01B2                     u2880:
  4763     01B2                     l2575:
  4764                           
  4765                           ;main.c: 372:                 {;main.c: 373:                     INTCONbits.INTE=0;
  4766     01B2  120B               	bcf	11,4	;volatile
  4767                           
  4768                           ;main.c: 374:                     INTCONbits.INTF=0;
  4769     01B3  108B               	bcf	11,1	;volatile
  4770                           
  4771                           ;main.c: 375:                     TRISBbits.TRISB0 =0;
  4772     01B4  1683               	bsf	3,5	;RP0=1, select bank1
  4773     01B5  1303               	bcf	3,6	;RP1=0, select bank1
  4774     01B6  1006               	bcf	6,0	;volatile
  4775     01B7                     l2577:
  4776                           
  4777                           ;main.c: 376:                     cnt=0;
  4778     01B7  3000               	movlw	0
  4779     01B8  1283               	bcf	3,5	;RP0=0, select bank0
  4780     01B9  1303               	bcf	3,6	;RP1=0, select bank0
  4781     01BA  00E1               	movwf	_cnt+3
  4782     01BB  3000               	movlw	0
  4783     01BC  00E0               	movwf	_cnt+2
  4784     01BD  3000               	movlw	0
  4785     01BE  00DF               	movwf	_cnt+1
  4786     01BF  3000               	movlw	0
  4787     01C0  00DE               	movwf	_cnt
  4788                           
  4789                           ;main.c: 377:                     set_cnt=0;
  4790     01C1  3000               	movlw	0
  4791     01C2  00DD               	movwf	_set_cnt+3
  4792     01C3  3000               	movlw	0
  4793     01C4  00DC               	movwf	_set_cnt+2
  4794     01C5  3000               	movlw	0
  4795     01C6  00DB               	movwf	_set_cnt+1
  4796     01C7  3000               	movlw	0
  4797     01C8  00DA               	movwf	_set_cnt
  4798     01C9                     l2579:
  4799                           
  4800                           ;main.c: 378:                     RE1=0;
  4801     01C9  1089               	bcf	9,1	;volatile
  4802     01CA                     l2581:
  4803                           
  4804                           ;main.c: 379:                     RE0=0;
  4805     01CA  1009               	bcf	9,0	;volatile
  4806     01CB                     l2583:
  4807                           
  4808                           ;main.c: 380:                     counter_mode1=0;
  4809     01CB  01EB               	clrf	_counter_mode1
  4810     01CC                     l2585:
  4811                           
  4812                           ;main.c: 381:                     counter_mode2=0;
  4813     01CC  01EA               	clrf	_counter_mode2
  4814     01CD                     l2587:	
  4815                           ;main.c: 382:                     break;
  4816                           
  4817                           
  4818                           ;main.c: 388:         if(setval_mode==1)
  4819     01CD  0369               	decf	_setval_mode,w
  4820     01CE  1D03               	btfss	3,2
  4821     01CF  29D1               	goto	u2891
  4822     01D0  29D3               	goto	u2890
  4823     01D1                     u2891:
  4824     01D1  158A  2CC5         	goto	l2333
  4825     01D3                     u2890:
  4826     01D3                     l2589:
  4827                           
  4828                           ;main.c: 391:             {;main.c: 392:                 if(get_key_f==1)
  4829     01D3  036C               	decf	_get_key_f,w
  4830     01D4  1D03               	btfss	3,2
  4831     01D5  29D7               	goto	u2901
  4832     01D6  29D8               	goto	u2900
  4833     01D7                     u2901:
  4834     01D7  2CBB               	goto	l2717
  4835     01D8                     u2900:
  4836     01D8                     l2591:
  4837                           
  4838                           ;main.c: 393:                 {;main.c: 394:                     key = KEYPAD_GetKey();
  4839     01D8  158A  2319  118A   	fcall	_KEYPAD_GetKey
  4840     01DB  1283               	bcf	3,5	;RP0=0, select bank0
  4841     01DC  1303               	bcf	3,6	;RP1=0, select bank0
  4842     01DD  00CD               	movwf	main@key
  4843     01DE                     l2593:
  4844                           
  4845                           ;main.c: 395:                     get_key_f=0;
  4846     01DE  01EC               	clrf	_get_key_f
  4847     01DF                     l2595:
  4848                           
  4849                           ;main.c: 396:                     if((key>=0x30&&key<=0x39)||(key>=0x41&&key<=0x46))
  4850     01DF  3030               	movlw	48
  4851     01E0  024D               	subwf	main@key,w
  4852     01E1  1C03               	skipc
  4853     01E2  29E4               	goto	u2911
  4854     01E3  29E5               	goto	u2910
  4855     01E4                     u2911:
  4856     01E4  29EB               	goto	l2599
  4857     01E5                     u2910:
  4858     01E5                     l2597:
  4859     01E5  303A               	movlw	58
  4860     01E6  024D               	subwf	main@key,w
  4861     01E7  1C03               	skipc
  4862     01E8  29EA               	goto	u2921
  4863     01E9  29EB               	goto	u2920
  4864     01EA                     u2921:
  4865     01EA  29F7               	goto	l2603
  4866     01EB                     u2920:
  4867     01EB                     l2599:
  4868     01EB  3041               	movlw	65
  4869     01EC  024D               	subwf	main@key,w
  4870     01ED  1C03               	skipc
  4871     01EE  29F0               	goto	u2931
  4872     01EF  29F1               	goto	u2930
  4873     01F0                     u2931:
  4874     01F0  2A03               	goto	l2605
  4875     01F1                     u2930:
  4876     01F1                     l2601:
  4877     01F1  3047               	movlw	71
  4878     01F2  024D               	subwf	main@key,w
  4879     01F3  1803               	skipnc
  4880     01F4  29F6               	goto	u2941
  4881     01F5  29F7               	goto	u2940
  4882     01F6                     u2941:
  4883     01F6  2A03               	goto	l2605
  4884     01F7                     u2940:
  4885     01F7                     l2603:
  4886                           
  4887                           ;main.c: 397:                     {;main.c: 398:                         UART_TxChar(key
      +                          );
  4888     01F7  084D               	movf	main@key,w
  4889     01F8  118A  27F5  118A   	fcall	_UART_TxChar
  4890                           
  4891                           ;main.c: 399:                         UART_TxChar('\r');
  4892     01FB  300D               	movlw	13
  4893     01FC  118A  27F5  118A   	fcall	_UART_TxChar
  4894                           
  4895                           ;main.c: 400:                         UART_TxChar('\n');
  4896     01FF  300A               	movlw	10
  4897     0200  118A  27F5  118A   	fcall	_UART_TxChar
  4898     0203                     l2605:
  4899                           
  4900                           ;main.c: 402:                     if(key=='3')
  4901     0203  3033               	movlw	51
  4902     0204  1283               	bcf	3,5	;RP0=0, select bank0
  4903     0205  1303               	bcf	3,6	;RP1=0, select bank0
  4904     0206  064D               	xorwf	main@key,w
  4905     0207  1D03               	btfss	3,2
  4906     0208  2A0A               	goto	u2951
  4907     0209  2A0B               	goto	u2950
  4908     020A                     u2951:
  4909     020A  2A18               	goto	l2613
  4910     020B                     u2950:
  4911     020B                     l2607:
  4912                           
  4913                           ;main.c: 403:                     {;main.c: 404:                         if(seg_set==1)
  4914     020B  0362               	decf	_seg_set,w
  4915     020C  0463               	iorwf	_seg_set+1,w
  4916     020D  1D03               	btfss	3,2
  4917     020E  2A10               	goto	u2961
  4918     020F  2A11               	goto	u2960
  4919     0210                     u2961:
  4920     0210  2A12               	goto	l2611
  4921     0211                     u2960:
  4922     0211  2A18               	goto	l2613
  4923     0212                     l2611:
  4924                           
  4925                           ;main.c: 407:                         seg_set--;
  4926     0212  3001               	movlw	1
  4927     0213  02E2               	subwf	_seg_set,f
  4928     0214  3000               	movlw	0
  4929     0215  1C03               	skipc
  4930     0216  03E3               	decf	_seg_set+1,f
  4931     0217  02E3               	subwf	_seg_set+1,f
  4932     0218                     l2613:
  4933                           
  4934                           ;main.c: 409:                     if(key=='3')
  4935     0218  3033               	movlw	51
  4936     0219  064D               	xorwf	main@key,w
  4937     021A  1D03               	btfss	3,2
  4938     021B  2A1D               	goto	u2971
  4939     021C  2A1E               	goto	u2970
  4940     021D                     u2971:
  4941     021D  2A2C               	goto	l2621
  4942     021E                     u2970:
  4943     021E                     l2615:
  4944                           
  4945                           ;main.c: 410:                     {;main.c: 411:                         if(seg_set==5)
  4946     021E  3005               	movlw	5
  4947     021F  0662               	xorwf	_seg_set,w
  4948     0220  0463               	iorwf	_seg_set+1,w
  4949     0221  1D03               	btfss	3,2
  4950     0222  2A24               	goto	u2981
  4951     0223  2A25               	goto	u2980
  4952     0224                     u2981:
  4953     0224  2A26               	goto	l2619
  4954     0225                     u2980:
  4955     0225  2A2C               	goto	l2621
  4956     0226                     l2619:
  4957                           
  4958                           ;main.c: 414:                         seg_set++;
  4959     0226  3001               	movlw	1
  4960     0227  07E2               	addwf	_seg_set,f
  4961     0228  1803               	skipnc
  4962     0229  0AE3               	incf	_seg_set+1,f
  4963     022A  3000               	movlw	0
  4964     022B  07E3               	addwf	_seg_set+1,f
  4965     022C                     l2621:
  4966                           
  4967                           ;main.c: 416:                     if(key=='3')
  4968     022C  3033               	movlw	51
  4969     022D  064D               	xorwf	main@key,w
  4970     022E  1D03               	btfss	3,2
  4971     022F  2A31               	goto	u2991
  4972     0230  2A32               	goto	u2990
  4973     0231                     u2991:
  4974     0231  2B5B               	goto	l2653
  4975     0232                     u2990:
  4976     0232                     l2623:
  4977                           
  4978                           ;main.c: 417:                     {;main.c: 418:                         if(seg_set==1)
  4979     0232  0362               	decf	_seg_set,w
  4980     0233  0463               	iorwf	_seg_set+1,w
  4981     0234  1D03               	btfss	3,2
  4982     0235  2A37               	goto	u3001
  4983     0236  2A38               	goto	u3000
  4984     0237                     u3001:
  4985     0237  2A5B               	goto	l2629
  4986     0238                     u3000:
  4987     0238                     l2625:
  4988                           
  4989                           ;main.c: 419:                         {;main.c: 420:                             if(set_
      +                          cnt<99999)
  4990     0238  085D               	movf	_set_cnt+3,w
  4991     0239  1D03               	btfss	3,2
  4992     023A  2A4A               	goto	u3011
  4993     023B  3001               	movlw	1
  4994     023C  025C               	subwf	_set_cnt+2,w
  4995     023D  1D03               	skipz
  4996     023E  2A47               	goto	u3013
  4997     023F  3086               	movlw	134
  4998     0240  025B               	subwf	_set_cnt+1,w
  4999     0241  1D03               	skipz
  5000     0242  2A47               	goto	u3013
  5001     0243  309F               	movlw	159
  5002     0244  025A               	subwf	_set_cnt,w
  5003     0245  1D03               	skipz
  5004     0246  2A47               	goto	u3013
  5005     0247                     u3013:
  5006     0247  1803               	btfsc	3,0
  5007     0248  2A4A               	goto	u3011
  5008     0249  2A4B               	goto	u3010
  5009     024A                     u3011:
  5010     024A  2A5B               	goto	l2629
  5011     024B                     u3010:
  5012     024B                     l2627:
  5013                           
  5014                           ;main.c: 421:                             set_cnt++;
  5015     024B  3001               	movlw	1
  5016     024C  1283               	bcf	3,5	;RP0=0, select bank0
  5017     024D  1303               	bcf	3,6	;RP1=0, select bank0
  5018     024E  07DA               	addwf	_set_cnt,f
  5019     024F  3000               	movlw	0
  5020     0250  1803               	skipnc
  5021     0251  3001               	movlw	1
  5022     0252  07DB               	addwf	_set_cnt+1,f
  5023     0253  3000               	movlw	0
  5024     0254  1803               	skipnc
  5025     0255  3001               	movlw	1
  5026     0256  07DC               	addwf	_set_cnt+2,f
  5027     0257  3000               	movlw	0
  5028     0258  1803               	skipnc
  5029     0259  3001               	movlw	1
  5030     025A  07DD               	addwf	_set_cnt+3,f
  5031     025B                     l2629:
  5032                           
  5033                           ;main.c: 424:                         if(seg_set==2)
  5034     025B  3002               	movlw	2
  5035     025C  1283               	bcf	3,5	;RP0=0, select bank0
  5036     025D  1303               	bcf	3,6	;RP1=0, select bank0
  5037     025E  0662               	xorwf	_seg_set,w
  5038     025F  0463               	iorwf	_seg_set+1,w
  5039     0260  1D03               	btfss	3,2
  5040     0261  2A63               	goto	u3021
  5041     0262  2A64               	goto	u3020
  5042     0263                     u3021:
  5043     0263  2A9B               	goto	l2635
  5044     0264                     u3020:
  5045     0264                     l2631:
  5046                           
  5047                           ;main.c: 425:                         {;main.c: 426:                             if(set_
      +                          cnt<99990)
  5048     0264  085D               	movf	_set_cnt+3,w
  5049     0265  1D03               	btfss	3,2
  5050     0266  2A76               	goto	u3031
  5051     0267  3001               	movlw	1
  5052     0268  025C               	subwf	_set_cnt+2,w
  5053     0269  1D03               	skipz
  5054     026A  2A73               	goto	u3033
  5055     026B  3086               	movlw	134
  5056     026C  025B               	subwf	_set_cnt+1,w
  5057     026D  1D03               	skipz
  5058     026E  2A73               	goto	u3033
  5059     026F  3096               	movlw	150
  5060     0270  025A               	subwf	_set_cnt,w
  5061     0271  1D03               	skipz
  5062     0272  2A73               	goto	u3033
  5063     0273                     u3033:
  5064     0273  1803               	btfsc	3,0
  5065     0274  2A76               	goto	u3031
  5066     0275  2A77               	goto	u3030
  5067     0276                     u3031:
  5068     0276  2A9B               	goto	l2635
  5069     0277                     u3030:
  5070     0277                     l2633:
  5071                           
  5072                           ;main.c: 427:                             set_cnt=set_cnt+10;
  5073     0277  300A               	movlw	10
  5074     0278  1283               	bcf	3,5	;RP0=0, select bank0
  5075     0279  1303               	bcf	3,6	;RP1=0, select bank0
  5076     027A  00BD               	movwf	??_main
  5077     027B  3000               	movlw	0
  5078     027C  00BE               	movwf	??_main+1
  5079     027D  3000               	movlw	0
  5080     027E  00BF               	movwf	??_main+2
  5081     027F  3000               	movlw	0
  5082     0280  00C0               	movwf	??_main+3
  5083     0281  085A               	movf	_set_cnt,w
  5084     0282  07BD               	addwf	??_main,f
  5085     0283  085B               	movf	_set_cnt+1,w
  5086     0284  1803               	skipnc
  5087     0285  0F5B               	incfsz	_set_cnt+1,w
  5088     0286  2A88               	goto	u3040
  5089     0287  2A89               	goto	u3041
  5090     0288                     u3040:
  5091     0288  07BE               	addwf	??_main+1,f
  5092     0289                     u3041:
  5093     0289  085C               	movf	_set_cnt+2,w
  5094     028A  1803               	skipnc
  5095     028B  0F5C               	incfsz	_set_cnt+2,w
  5096     028C  2A8E               	goto	u3042
  5097     028D  2A8F               	goto	u3043
  5098     028E                     u3042:
  5099     028E  07BF               	addwf	??_main+2,f
  5100     028F                     u3043:
  5101     028F  085D               	movf	_set_cnt+3,w
  5102     0290  1803               	skipnc
  5103     0291  0A5D               	incf	_set_cnt+3,w
  5104     0292  07C0               	addwf	??_main+3,f
  5105     0293  0840               	movf	??_main+3,w
  5106     0294  00DD               	movwf	_set_cnt+3
  5107     0295  083F               	movf	??_main+2,w
  5108     0296  00DC               	movwf	_set_cnt+2
  5109     0297  083E               	movf	??_main+1,w
  5110     0298  00DB               	movwf	_set_cnt+1
  5111     0299  083D               	movf	??_main,w
  5112     029A  00DA               	movwf	_set_cnt
  5113     029B                     l2635:
  5114                           
  5115                           ;main.c: 429:                         if(seg_set==3)
  5116     029B  3003               	movlw	3
  5117     029C  1283               	bcf	3,5	;RP0=0, select bank0
  5118     029D  1303               	bcf	3,6	;RP1=0, select bank0
  5119     029E  0662               	xorwf	_seg_set,w
  5120     029F  0463               	iorwf	_seg_set+1,w
  5121     02A0  1D03               	btfss	3,2
  5122     02A1  2AA3               	goto	u3051
  5123     02A2  2AA4               	goto	u3050
  5124     02A3                     u3051:
  5125     02A3  2ADB               	goto	l2641
  5126     02A4                     u3050:
  5127     02A4                     l2637:
  5128                           
  5129                           ;main.c: 430:                         {;main.c: 431:                             if(set_
      +                          cnt<99900)
  5130     02A4  085D               	movf	_set_cnt+3,w
  5131     02A5  1D03               	btfss	3,2
  5132     02A6  2AB6               	goto	u3061
  5133     02A7  3001               	movlw	1
  5134     02A8  025C               	subwf	_set_cnt+2,w
  5135     02A9  1D03               	skipz
  5136     02AA  2AB3               	goto	u3063
  5137     02AB  3086               	movlw	134
  5138     02AC  025B               	subwf	_set_cnt+1,w
  5139     02AD  1D03               	skipz
  5140     02AE  2AB3               	goto	u3063
  5141     02AF  303C               	movlw	60
  5142     02B0  025A               	subwf	_set_cnt,w
  5143     02B1  1D03               	skipz
  5144     02B2  2AB3               	goto	u3063
  5145     02B3                     u3063:
  5146     02B3  1803               	btfsc	3,0
  5147     02B4  2AB6               	goto	u3061
  5148     02B5  2AB7               	goto	u3060
  5149     02B6                     u3061:
  5150     02B6  2ADB               	goto	l2641
  5151     02B7                     u3060:
  5152     02B7                     l2639:
  5153                           
  5154                           ;main.c: 432:                             set_cnt=set_cnt+100;
  5155     02B7  3064               	movlw	100
  5156     02B8  1283               	bcf	3,5	;RP0=0, select bank0
  5157     02B9  1303               	bcf	3,6	;RP1=0, select bank0
  5158     02BA  00BD               	movwf	??_main
  5159     02BB  3000               	movlw	0
  5160     02BC  00BE               	movwf	??_main+1
  5161     02BD  3000               	movlw	0
  5162     02BE  00BF               	movwf	??_main+2
  5163     02BF  3000               	movlw	0
  5164     02C0  00C0               	movwf	??_main+3
  5165     02C1  085A               	movf	_set_cnt,w
  5166     02C2  07BD               	addwf	??_main,f
  5167     02C3  085B               	movf	_set_cnt+1,w
  5168     02C4  1803               	skipnc
  5169     02C5  0F5B               	incfsz	_set_cnt+1,w
  5170     02C6  2AC8               	goto	u3070
  5171     02C7  2AC9               	goto	u3071
  5172     02C8                     u3070:
  5173     02C8  07BE               	addwf	??_main+1,f
  5174     02C9                     u3071:
  5175     02C9  085C               	movf	_set_cnt+2,w
  5176     02CA  1803               	skipnc
  5177     02CB  0F5C               	incfsz	_set_cnt+2,w
  5178     02CC  2ACE               	goto	u3072
  5179     02CD  2ACF               	goto	u3073
  5180     02CE                     u3072:
  5181     02CE  07BF               	addwf	??_main+2,f
  5182     02CF                     u3073:
  5183     02CF  085D               	movf	_set_cnt+3,w
  5184     02D0  1803               	skipnc
  5185     02D1  0A5D               	incf	_set_cnt+3,w
  5186     02D2  07C0               	addwf	??_main+3,f
  5187     02D3  0840               	movf	??_main+3,w
  5188     02D4  00DD               	movwf	_set_cnt+3
  5189     02D5  083F               	movf	??_main+2,w
  5190     02D6  00DC               	movwf	_set_cnt+2
  5191     02D7  083E               	movf	??_main+1,w
  5192     02D8  00DB               	movwf	_set_cnt+1
  5193     02D9  083D               	movf	??_main,w
  5194     02DA  00DA               	movwf	_set_cnt
  5195     02DB                     l2641:
  5196                           
  5197                           ;main.c: 434:                         if(seg_set==4)
  5198     02DB  3004               	movlw	4
  5199     02DC  1283               	bcf	3,5	;RP0=0, select bank0
  5200     02DD  1303               	bcf	3,6	;RP1=0, select bank0
  5201     02DE  0662               	xorwf	_seg_set,w
  5202     02DF  0463               	iorwf	_seg_set+1,w
  5203     02E0  1D03               	btfss	3,2
  5204     02E1  2AE3               	goto	u3081
  5205     02E2  2AE4               	goto	u3080
  5206     02E3                     u3081:
  5207     02E3  2B1B               	goto	l2647
  5208     02E4                     u3080:
  5209     02E4                     l2643:
  5210                           
  5211                           ;main.c: 435:                         {;main.c: 436:                              if(set
      +                          _cnt<99000)
  5212     02E4  085D               	movf	_set_cnt+3,w
  5213     02E5  1D03               	btfss	3,2
  5214     02E6  2AF6               	goto	u3091
  5215     02E7  3001               	movlw	1
  5216     02E8  025C               	subwf	_set_cnt+2,w
  5217     02E9  1D03               	skipz
  5218     02EA  2AF3               	goto	u3093
  5219     02EB  3082               	movlw	130
  5220     02EC  025B               	subwf	_set_cnt+1,w
  5221     02ED  1D03               	skipz
  5222     02EE  2AF3               	goto	u3093
  5223     02EF  30B8               	movlw	184
  5224     02F0  025A               	subwf	_set_cnt,w
  5225     02F1  1D03               	skipz
  5226     02F2  2AF3               	goto	u3093
  5227     02F3                     u3093:
  5228     02F3  1803               	btfsc	3,0
  5229     02F4  2AF6               	goto	u3091
  5230     02F5  2AF7               	goto	u3090
  5231     02F6                     u3091:
  5232     02F6  2B1B               	goto	l2647
  5233     02F7                     u3090:
  5234     02F7                     l2645:
  5235                           
  5236                           ;main.c: 437:                             set_cnt=set_cnt+1000;
  5237     02F7  30E8               	movlw	232
  5238     02F8  1283               	bcf	3,5	;RP0=0, select bank0
  5239     02F9  1303               	bcf	3,6	;RP1=0, select bank0
  5240     02FA  00BD               	movwf	??_main
  5241     02FB  3003               	movlw	3
  5242     02FC  00BE               	movwf	??_main+1
  5243     02FD  3000               	movlw	0
  5244     02FE  00BF               	movwf	??_main+2
  5245     02FF  3000               	movlw	0
  5246     0300  00C0               	movwf	??_main+3
  5247     0301  085A               	movf	_set_cnt,w
  5248     0302  07BD               	addwf	??_main,f
  5249     0303  085B               	movf	_set_cnt+1,w
  5250     0304  1803               	skipnc
  5251     0305  0F5B               	incfsz	_set_cnt+1,w
  5252     0306  2B08               	goto	u3100
  5253     0307  2B09               	goto	u3101
  5254     0308                     u3100:
  5255     0308  07BE               	addwf	??_main+1,f
  5256     0309                     u3101:
  5257     0309  085C               	movf	_set_cnt+2,w
  5258     030A  1803               	skipnc
  5259     030B  0F5C               	incfsz	_set_cnt+2,w
  5260     030C  2B0E               	goto	u3102
  5261     030D  2B0F               	goto	u3103
  5262     030E                     u3102:
  5263     030E  07BF               	addwf	??_main+2,f
  5264     030F                     u3103:
  5265     030F  085D               	movf	_set_cnt+3,w
  5266     0310  1803               	skipnc
  5267     0311  0A5D               	incf	_set_cnt+3,w
  5268     0312  07C0               	addwf	??_main+3,f
  5269     0313  0840               	movf	??_main+3,w
  5270     0314  00DD               	movwf	_set_cnt+3
  5271     0315  083F               	movf	??_main+2,w
  5272     0316  00DC               	movwf	_set_cnt+2
  5273     0317  083E               	movf	??_main+1,w
  5274     0318  00DB               	movwf	_set_cnt+1
  5275     0319  083D               	movf	??_main,w
  5276     031A  00DA               	movwf	_set_cnt
  5277     031B                     l2647:
  5278                           
  5279                           ;main.c: 439:                         if(seg_set==5)
  5280     031B  3005               	movlw	5
  5281     031C  1283               	bcf	3,5	;RP0=0, select bank0
  5282     031D  1303               	bcf	3,6	;RP1=0, select bank0
  5283     031E  0662               	xorwf	_seg_set,w
  5284     031F  0463               	iorwf	_seg_set+1,w
  5285     0320  1D03               	btfss	3,2
  5286     0321  2B23               	goto	u3111
  5287     0322  2B24               	goto	u3110
  5288     0323                     u3111:
  5289     0323  2B5B               	goto	l2653
  5290     0324                     u3110:
  5291     0324                     l2649:
  5292                           
  5293                           ;main.c: 440:                         {;main.c: 441:                             if(set_
      +                          cnt<90000)
  5294     0324  085D               	movf	_set_cnt+3,w
  5295     0325  1D03               	btfss	3,2
  5296     0326  2B36               	goto	u3121
  5297     0327  3001               	movlw	1
  5298     0328  025C               	subwf	_set_cnt+2,w
  5299     0329  1D03               	skipz
  5300     032A  2B33               	goto	u3123
  5301     032B  305F               	movlw	95
  5302     032C  025B               	subwf	_set_cnt+1,w
  5303     032D  1D03               	skipz
  5304     032E  2B33               	goto	u3123
  5305     032F  3090               	movlw	144
  5306     0330  025A               	subwf	_set_cnt,w
  5307     0331  1D03               	skipz
  5308     0332  2B33               	goto	u3123
  5309     0333                     u3123:
  5310     0333  1803               	btfsc	3,0
  5311     0334  2B36               	goto	u3121
  5312     0335  2B37               	goto	u3120
  5313     0336                     u3121:
  5314     0336  2B5B               	goto	l2653
  5315     0337                     u3120:
  5316     0337                     l2651:
  5317                           
  5318                           ;main.c: 442:                             set_cnt=set_cnt+10000;
  5319     0337  3010               	movlw	16
  5320     0338  1283               	bcf	3,5	;RP0=0, select bank0
  5321     0339  1303               	bcf	3,6	;RP1=0, select bank0
  5322     033A  00BD               	movwf	??_main
  5323     033B  3027               	movlw	39
  5324     033C  00BE               	movwf	??_main+1
  5325     033D  3000               	movlw	0
  5326     033E  00BF               	movwf	??_main+2
  5327     033F  3000               	movlw	0
  5328     0340  00C0               	movwf	??_main+3
  5329     0341  085A               	movf	_set_cnt,w
  5330     0342  07BD               	addwf	??_main,f
  5331     0343  085B               	movf	_set_cnt+1,w
  5332     0344  1803               	skipnc
  5333     0345  0F5B               	incfsz	_set_cnt+1,w
  5334     0346  2B48               	goto	u3130
  5335     0347  2B49               	goto	u3131
  5336     0348                     u3130:
  5337     0348  07BE               	addwf	??_main+1,f
  5338     0349                     u3131:
  5339     0349  085C               	movf	_set_cnt+2,w
  5340     034A  1803               	skipnc
  5341     034B  0F5C               	incfsz	_set_cnt+2,w
  5342     034C  2B4E               	goto	u3132
  5343     034D  2B4F               	goto	u3133
  5344     034E                     u3132:
  5345     034E  07BF               	addwf	??_main+2,f
  5346     034F                     u3133:
  5347     034F  085D               	movf	_set_cnt+3,w
  5348     0350  1803               	skipnc
  5349     0351  0A5D               	incf	_set_cnt+3,w
  5350     0352  07C0               	addwf	??_main+3,f
  5351     0353  0840               	movf	??_main+3,w
  5352     0354  00DD               	movwf	_set_cnt+3
  5353     0355  083F               	movf	??_main+2,w
  5354     0356  00DC               	movwf	_set_cnt+2
  5355     0357  083E               	movf	??_main+1,w
  5356     0358  00DB               	movwf	_set_cnt+1
  5357     0359  083D               	movf	??_main,w
  5358     035A  00DA               	movwf	_set_cnt
  5359     035B                     l2653:
  5360                           
  5361                           ;main.c: 445:                     if(key=='3')
  5362     035B  3033               	movlw	51
  5363     035C  1283               	bcf	3,5	;RP0=0, select bank0
  5364     035D  1303               	bcf	3,6	;RP1=0, select bank0
  5365     035E  064D               	xorwf	main@key,w
  5366     035F  1D03               	btfss	3,2
  5367     0360  2B62               	goto	u3141
  5368     0361  2B63               	goto	u3140
  5369     0362                     u3141:
  5370     0362  2C85               	goto	l2685
  5371     0363                     u3140:
  5372     0363                     l2655:
  5373                           
  5374                           ;main.c: 446:                     {;main.c: 447:                         if(seg_set==1)
  5375     0363  0362               	decf	_seg_set,w
  5376     0364  0463               	iorwf	_seg_set+1,w
  5377     0365  1D03               	btfss	3,2
  5378     0366  2B68               	goto	u3151
  5379     0367  2B69               	goto	u3150
  5380     0368                     u3151:
  5381     0368  2B8D               	goto	l2661
  5382     0369                     u3150:
  5383     0369                     l2657:
  5384                           
  5385                           ;main.c: 448:                         {;main.c: 449:                             if(set_
      +                          cnt>0)
  5386     0369  085D               	movf	_set_cnt+3,w
  5387     036A  045C               	iorwf	_set_cnt+2,w
  5388     036B  045B               	iorwf	_set_cnt+1,w
  5389     036C  045A               	iorwf	_set_cnt,w
  5390     036D  1903               	skipnz
  5391     036E  2B70               	goto	u3161
  5392     036F  2B71               	goto	u3160
  5393     0370                     u3161:
  5394     0370  2B8D               	goto	l2661
  5395     0371                     u3160:
  5396     0371                     l2659:
  5397                           
  5398                           ;main.c: 450:                             set_cnt--;
  5399     0371  3001               	movlw	1
  5400     0372  00BD               	movwf	??_main
  5401     0373  3000               	movlw	0
  5402     0374  00BE               	movwf	??_main+1
  5403     0375  3000               	movlw	0
  5404     0376  00BF               	movwf	??_main+2
  5405     0377  3000               	movlw	0
  5406     0378  00C0               	movwf	??_main+3
  5407     0379  083D               	movf	??_main,w
  5408     037A  02DA               	subwf	_set_cnt,f
  5409     037B  083E               	movf	??_main+1,w
  5410     037C  1C03               	skipc
  5411     037D  0F3E               	incfsz	??_main+1,w
  5412     037E  2B80               	goto	u3175
  5413     037F  2B81               	goto	u3176
  5414     0380                     u3175:
  5415     0380  02DB               	subwf	_set_cnt+1,f
  5416     0381                     u3176:
  5417     0381  083F               	movf	??_main+2,w
  5418     0382  1C03               	skipc
  5419     0383  0F3F               	incfsz	??_main+2,w
  5420     0384  2B86               	goto	u3177
  5421     0385  2B87               	goto	u3178
  5422     0386                     u3177:
  5423     0386  02DC               	subwf	_set_cnt+2,f
  5424     0387                     u3178:
  5425     0387  0840               	movf	??_main+3,w
  5426     0388  1C03               	skipc
  5427     0389  0F40               	incfsz	??_main+3,w
  5428     038A  2B8C               	goto	u3179
  5429     038B  2B8D               	goto	u3170
  5430     038C                     u3179:
  5431     038C  02DD               	subwf	_set_cnt+3,f
  5432     038D                     u3170:
  5433     038D                     l2661:
  5434                           
  5435                           ;main.c: 454:                         if(seg_set==2)
  5436     038D  3002               	movlw	2
  5437     038E  0662               	xorwf	_seg_set,w
  5438     038F  0463               	iorwf	_seg_set+1,w
  5439     0390  1D03               	btfss	3,2
  5440     0391  2B93               	goto	u3181
  5441     0392  2B94               	goto	u3180
  5442     0393                     u3181:
  5443     0393  2BC9               	goto	l2667
  5444     0394                     u3180:
  5445     0394                     l2663:
  5446                           
  5447                           ;main.c: 455:                         {;main.c: 456:                             if(set_
      +                          cnt>10)
  5448     0394  085D               	movf	_set_cnt+3,w
  5449     0395  1D03               	btfss	3,2
  5450     0396  2BA5               	goto	u3190
  5451     0397  085C               	movf	_set_cnt+2,w
  5452     0398  1D03               	btfss	3,2
  5453     0399  2BA5               	goto	u3190
  5454     039A  085B               	movf	_set_cnt+1,w
  5455     039B  1D03               	btfss	3,2
  5456     039C  2BA5               	goto	u3190
  5457     039D  300B               	movlw	11
  5458     039E  025A               	subwf	_set_cnt,w
  5459     039F  1D03               	skipz
  5460     03A0  2BA1               	goto	u3193
  5461     03A1                     u3193:
  5462     03A1  1C03               	btfss	3,0
  5463     03A2  2BA4               	goto	u3191
  5464     03A3  2BA5               	goto	u3190
  5465     03A4                     u3191:
  5466     03A4  2BC9               	goto	l2667
  5467     03A5                     u3190:
  5468     03A5                     l2665:
  5469                           
  5470                           ;main.c: 457:                             set_cnt=set_cnt-10;
  5471     03A5  30F6               	movlw	246
  5472     03A6  1283               	bcf	3,5	;RP0=0, select bank0
  5473     03A7  1303               	bcf	3,6	;RP1=0, select bank0
  5474     03A8  00BD               	movwf	??_main
  5475     03A9  30FF               	movlw	255
  5476     03AA  00BE               	movwf	??_main+1
  5477     03AB  30FF               	movlw	255
  5478     03AC  00BF               	movwf	??_main+2
  5479     03AD  30FF               	movlw	255
  5480     03AE  00C0               	movwf	??_main+3
  5481     03AF  085A               	movf	_set_cnt,w
  5482     03B0  07BD               	addwf	??_main,f
  5483     03B1  085B               	movf	_set_cnt+1,w
  5484     03B2  1803               	skipnc
  5485     03B3  0F5B               	incfsz	_set_cnt+1,w
  5486     03B4  2BB6               	goto	u3200
  5487     03B5  2BB7               	goto	u3201
  5488     03B6                     u3200:
  5489     03B6  07BE               	addwf	??_main+1,f
  5490     03B7                     u3201:
  5491     03B7  085C               	movf	_set_cnt+2,w
  5492     03B8  1803               	skipnc
  5493     03B9  0F5C               	incfsz	_set_cnt+2,w
  5494     03BA  2BBC               	goto	u3202
  5495     03BB  2BBD               	goto	u3203
  5496     03BC                     u3202:
  5497     03BC  07BF               	addwf	??_main+2,f
  5498     03BD                     u3203:
  5499     03BD  085D               	movf	_set_cnt+3,w
  5500     03BE  1803               	skipnc
  5501     03BF  0A5D               	incf	_set_cnt+3,w
  5502     03C0  07C0               	addwf	??_main+3,f
  5503     03C1  0840               	movf	??_main+3,w
  5504     03C2  00DD               	movwf	_set_cnt+3
  5505     03C3  083F               	movf	??_main+2,w
  5506     03C4  00DC               	movwf	_set_cnt+2
  5507     03C5  083E               	movf	??_main+1,w
  5508     03C6  00DB               	movwf	_set_cnt+1
  5509     03C7  083D               	movf	??_main,w
  5510     03C8  00DA               	movwf	_set_cnt
  5511     03C9                     l2667:
  5512                           
  5513                           ;main.c: 461:                         if(seg_set==3)
  5514     03C9  3003               	movlw	3
  5515     03CA  1283               	bcf	3,5	;RP0=0, select bank0
  5516     03CB  1303               	bcf	3,6	;RP1=0, select bank0
  5517     03CC  0662               	xorwf	_seg_set,w
  5518     03CD  0463               	iorwf	_seg_set+1,w
  5519     03CE  1D03               	btfss	3,2
  5520     03CF  2BD1               	goto	u3211
  5521     03D0  2BD2               	goto	u3210
  5522     03D1                     u3211:
  5523     03D1  2C07               	goto	l2673
  5524     03D2                     u3210:
  5525     03D2                     l2669:
  5526                           
  5527                           ;main.c: 462:                         {;main.c: 463:                             if(set_
      +                          cnt>100)
  5528     03D2  085D               	movf	_set_cnt+3,w
  5529     03D3  1D03               	btfss	3,2
  5530     03D4  2BE3               	goto	u3220
  5531     03D5  085C               	movf	_set_cnt+2,w
  5532     03D6  1D03               	btfss	3,2
  5533     03D7  2BE3               	goto	u3220
  5534     03D8  085B               	movf	_set_cnt+1,w
  5535     03D9  1D03               	btfss	3,2
  5536     03DA  2BE3               	goto	u3220
  5537     03DB  3065               	movlw	101
  5538     03DC  025A               	subwf	_set_cnt,w
  5539     03DD  1D03               	skipz
  5540     03DE  2BDF               	goto	u3223
  5541     03DF                     u3223:
  5542     03DF  1C03               	btfss	3,0
  5543     03E0  2BE2               	goto	u3221
  5544     03E1  2BE3               	goto	u3220
  5545     03E2                     u3221:
  5546     03E2  2C07               	goto	l2673
  5547     03E3                     u3220:
  5548     03E3                     l2671:
  5549                           
  5550                           ;main.c: 464:                             set_cnt=set_cnt-100;
  5551     03E3  309C               	movlw	156
  5552     03E4  1283               	bcf	3,5	;RP0=0, select bank0
  5553     03E5  1303               	bcf	3,6	;RP1=0, select bank0
  5554     03E6  00BD               	movwf	??_main
  5555     03E7  30FF               	movlw	255
  5556     03E8  00BE               	movwf	??_main+1
  5557     03E9  30FF               	movlw	255
  5558     03EA  00BF               	movwf	??_main+2
  5559     03EB  30FF               	movlw	255
  5560     03EC  00C0               	movwf	??_main+3
  5561     03ED  085A               	movf	_set_cnt,w
  5562     03EE  07BD               	addwf	??_main,f
  5563     03EF  085B               	movf	_set_cnt+1,w
  5564     03F0  1803               	skipnc
  5565     03F1  0F5B               	incfsz	_set_cnt+1,w
  5566     03F2  2BF4               	goto	u3230
  5567     03F3  2BF5               	goto	u3231
  5568     03F4                     u3230:
  5569     03F4  07BE               	addwf	??_main+1,f
  5570     03F5                     u3231:
  5571     03F5  085C               	movf	_set_cnt+2,w
  5572     03F6  1803               	skipnc
  5573     03F7  0F5C               	incfsz	_set_cnt+2,w
  5574     03F8  2BFA               	goto	u3232
  5575     03F9  2BFB               	goto	u3233
  5576     03FA                     u3232:
  5577     03FA  07BF               	addwf	??_main+2,f
  5578     03FB                     u3233:
  5579     03FB  085D               	movf	_set_cnt+3,w
  5580     03FC  1803               	skipnc
  5581     03FD  0A5D               	incf	_set_cnt+3,w
  5582     03FE  07C0               	addwf	??_main+3,f
  5583     03FF  0840               	movf	??_main+3,w
  5584     0400  00DD               	movwf	_set_cnt+3
  5585     0401  083F               	movf	??_main+2,w
  5586     0402  00DC               	movwf	_set_cnt+2
  5587     0403  083E               	movf	??_main+1,w
  5588     0404  00DB               	movwf	_set_cnt+1
  5589     0405  083D               	movf	??_main,w
  5590     0406  00DA               	movwf	_set_cnt
  5591     0407                     l2673:
  5592                           
  5593                           ;main.c: 466:                         if(seg_set==4)
  5594     0407  3004               	movlw	4
  5595     0408  1283               	bcf	3,5	;RP0=0, select bank0
  5596     0409  1303               	bcf	3,6	;RP1=0, select bank0
  5597     040A  0662               	xorwf	_seg_set,w
  5598     040B  0463               	iorwf	_seg_set+1,w
  5599     040C  1D03               	btfss	3,2
  5600     040D  2C0F               	goto	u3241
  5601     040E  2C10               	goto	u3240
  5602     040F                     u3241:
  5603     040F  2C46               	goto	l2679
  5604     0410                     u3240:
  5605     0410                     l2675:
  5606                           
  5607                           ;main.c: 467:                         {;main.c: 468:                             if(set_
      +                          cnt>1000)
  5608     0410  085D               	movf	_set_cnt+3,w
  5609     0411  1D03               	btfss	3,2
  5610     0412  2C22               	goto	u3250
  5611     0413  085C               	movf	_set_cnt+2,w
  5612     0414  1D03               	btfss	3,2
  5613     0415  2C22               	goto	u3250
  5614     0416  3003               	movlw	3
  5615     0417  025B               	subwf	_set_cnt+1,w
  5616     0418  1D03               	skipz
  5617     0419  2C1E               	goto	u3253
  5618     041A  30E9               	movlw	233
  5619     041B  025A               	subwf	_set_cnt,w
  5620     041C  1D03               	skipz
  5621     041D  2C1E               	goto	u3253
  5622     041E                     u3253:
  5623     041E  1C03               	btfss	3,0
  5624     041F  2C21               	goto	u3251
  5625     0420  2C22               	goto	u3250
  5626     0421                     u3251:
  5627     0421  2C46               	goto	l2679
  5628     0422                     u3250:
  5629     0422                     l2677:
  5630                           
  5631                           ;main.c: 469:                             set_cnt=set_cnt-1000;
  5632     0422  3018               	movlw	24
  5633     0423  1283               	bcf	3,5	;RP0=0, select bank0
  5634     0424  1303               	bcf	3,6	;RP1=0, select bank0
  5635     0425  00BD               	movwf	??_main
  5636     0426  30FC               	movlw	252
  5637     0427  00BE               	movwf	??_main+1
  5638     0428  30FF               	movlw	255
  5639     0429  00BF               	movwf	??_main+2
  5640     042A  30FF               	movlw	255
  5641     042B  00C0               	movwf	??_main+3
  5642     042C  085A               	movf	_set_cnt,w
  5643     042D  07BD               	addwf	??_main,f
  5644     042E  085B               	movf	_set_cnt+1,w
  5645     042F  1803               	skipnc
  5646     0430  0F5B               	incfsz	_set_cnt+1,w
  5647     0431  2C33               	goto	u3260
  5648     0432  2C34               	goto	u3261
  5649     0433                     u3260:
  5650     0433  07BE               	addwf	??_main+1,f
  5651     0434                     u3261:
  5652     0434  085C               	movf	_set_cnt+2,w
  5653     0435  1803               	skipnc
  5654     0436  0F5C               	incfsz	_set_cnt+2,w
  5655     0437  2C39               	goto	u3262
  5656     0438  2C3A               	goto	u3263
  5657     0439                     u3262:
  5658     0439  07BF               	addwf	??_main+2,f
  5659     043A                     u3263:
  5660     043A  085D               	movf	_set_cnt+3,w
  5661     043B  1803               	skipnc
  5662     043C  0A5D               	incf	_set_cnt+3,w
  5663     043D  07C0               	addwf	??_main+3,f
  5664     043E  0840               	movf	??_main+3,w
  5665     043F  00DD               	movwf	_set_cnt+3
  5666     0440  083F               	movf	??_main+2,w
  5667     0441  00DC               	movwf	_set_cnt+2
  5668     0442  083E               	movf	??_main+1,w
  5669     0443  00DB               	movwf	_set_cnt+1
  5670     0444  083D               	movf	??_main,w
  5671     0445  00DA               	movwf	_set_cnt
  5672     0446                     l2679:
  5673                           
  5674                           ;main.c: 471:                         if(seg_set==5)
  5675     0446  3005               	movlw	5
  5676     0447  1283               	bcf	3,5	;RP0=0, select bank0
  5677     0448  1303               	bcf	3,6	;RP1=0, select bank0
  5678     0449  0662               	xorwf	_seg_set,w
  5679     044A  0463               	iorwf	_seg_set+1,w
  5680     044B  1D03               	btfss	3,2
  5681     044C  2C4E               	goto	u3271
  5682     044D  2C4F               	goto	u3270
  5683     044E                     u3271:
  5684     044E  2C85               	goto	l2685
  5685     044F                     u3270:
  5686     044F                     l2681:
  5687                           
  5688                           ;main.c: 472:                         {;main.c: 473:                             if(set_
      +                          cnt>10000)
  5689     044F  085D               	movf	_set_cnt+3,w
  5690     0450  1D03               	btfss	3,2
  5691     0451  2C61               	goto	u3280
  5692     0452  085C               	movf	_set_cnt+2,w
  5693     0453  1D03               	btfss	3,2
  5694     0454  2C61               	goto	u3280
  5695     0455  3027               	movlw	39
  5696     0456  025B               	subwf	_set_cnt+1,w
  5697     0457  1D03               	skipz
  5698     0458  2C5D               	goto	u3283
  5699     0459  3011               	movlw	17
  5700     045A  025A               	subwf	_set_cnt,w
  5701     045B  1D03               	skipz
  5702     045C  2C5D               	goto	u3283
  5703     045D                     u3283:
  5704     045D  1C03               	btfss	3,0
  5705     045E  2C60               	goto	u3281
  5706     045F  2C61               	goto	u3280
  5707     0460                     u3281:
  5708     0460  2C85               	goto	l2685
  5709     0461                     u3280:
  5710     0461                     l2683:
  5711                           
  5712                           ;main.c: 474:                             set_cnt=set_cnt-10000;
  5713     0461  30F0               	movlw	240
  5714     0462  1283               	bcf	3,5	;RP0=0, select bank0
  5715     0463  1303               	bcf	3,6	;RP1=0, select bank0
  5716     0464  00BD               	movwf	??_main
  5717     0465  30D8               	movlw	216
  5718     0466  00BE               	movwf	??_main+1
  5719     0467  30FF               	movlw	255
  5720     0468  00BF               	movwf	??_main+2
  5721     0469  30FF               	movlw	255
  5722     046A  00C0               	movwf	??_main+3
  5723     046B  085A               	movf	_set_cnt,w
  5724     046C  07BD               	addwf	??_main,f
  5725     046D  085B               	movf	_set_cnt+1,w
  5726     046E  1803               	skipnc
  5727     046F  0F5B               	incfsz	_set_cnt+1,w
  5728     0470  2C72               	goto	u3290
  5729     0471  2C73               	goto	u3291
  5730     0472                     u3290:
  5731     0472  07BE               	addwf	??_main+1,f
  5732     0473                     u3291:
  5733     0473  085C               	movf	_set_cnt+2,w
  5734     0474  1803               	skipnc
  5735     0475  0F5C               	incfsz	_set_cnt+2,w
  5736     0476  2C78               	goto	u3292
  5737     0477  2C79               	goto	u3293
  5738     0478                     u3292:
  5739     0478  07BF               	addwf	??_main+2,f
  5740     0479                     u3293:
  5741     0479  085D               	movf	_set_cnt+3,w
  5742     047A  1803               	skipnc
  5743     047B  0A5D               	incf	_set_cnt+3,w
  5744     047C  07C0               	addwf	??_main+3,f
  5745     047D  0840               	movf	??_main+3,w
  5746     047E  00DD               	movwf	_set_cnt+3
  5747     047F  083F               	movf	??_main+2,w
  5748     0480  00DC               	movwf	_set_cnt+2
  5749     0481  083E               	movf	??_main+1,w
  5750     0482  00DB               	movwf	_set_cnt+1
  5751     0483  083D               	movf	??_main,w
  5752     0484  00DA               	movwf	_set_cnt
  5753     0485                     l2685:
  5754                           
  5755                           ;main.c: 477:                     if(key=='3')
  5756     0485  3033               	movlw	51
  5757     0486  1283               	bcf	3,5	;RP0=0, select bank0
  5758     0487  1303               	bcf	3,6	;RP1=0, select bank0
  5759     0488  064D               	xorwf	main@key,w
  5760     0489  1D03               	btfss	3,2
  5761     048A  2C8C               	goto	u3301
  5762     048B  2C8D               	goto	u3300
  5763     048C                     u3301:
  5764     048C  2CA2               	goto	l2701
  5765     048D                     u3300:
  5766     048D                     l2687:
  5767                           
  5768                           ;main.c: 478:                     {;main.c: 479:                         INTCONbits.INTE
      +                          =1;
  5769     048D  160B               	bsf	11,4	;volatile
  5770                           
  5771                           ;main.c: 480:                         TRISBbits.TRISB0 =1;
  5772     048E  1683               	bsf	3,5	;RP0=1, select bank1
  5773     048F  1303               	bcf	3,6	;RP1=0, select bank1
  5774     0490  1406               	bsf	6,0	;volatile
  5775     0491                     l2689:
  5776                           
  5777                           ;main.c: 481:                         cnt=0;
  5778     0491  3000               	movlw	0
  5779     0492  1283               	bcf	3,5	;RP0=0, select bank0
  5780     0493  1303               	bcf	3,6	;RP1=0, select bank0
  5781     0494  00E1               	movwf	_cnt+3
  5782     0495  3000               	movlw	0
  5783     0496  00E0               	movwf	_cnt+2
  5784     0497  3000               	movlw	0
  5785     0498  00DF               	movwf	_cnt+1
  5786     0499  3000               	movlw	0
  5787     049A  00DE               	movwf	_cnt
  5788     049B                     l2691:
  5789                           
  5790                           ;main.c: 482:                         RE1=1;
  5791     049B  1489               	bsf	9,1	;volatile
  5792     049C                     l2693:
  5793                           
  5794                           ;main.c: 483:                         RE0=1;
  5795     049C  1409               	bsf	9,0	;volatile
  5796     049D                     l2695:
  5797                           
  5798                           ;main.c: 484:                         counter_mode2=1;
  5799     049D  01EA               	clrf	_counter_mode2
  5800     049E  0AEA               	incf	_counter_mode2,f
  5801     049F                     l2697:
  5802                           
  5803                           ;main.c: 485:                         counter_mode1=0;
  5804     049F  01EB               	clrf	_counter_mode1
  5805     04A0                     l2699:
  5806                           
  5807                           ;main.c: 486:                         setval_mode=0;
  5808     04A0  01E9               	clrf	_setval_mode
  5809                           
  5810                           ;main.c: 487:                         break;
  5811     04A1  29D1               	goto	u2891
  5812     04A2                     l2701:
  5813                           
  5814                           ;main.c: 489:                     if(key=='3')
  5815     04A2  3033               	movlw	51
  5816     04A3  064D               	xorwf	main@key,w
  5817     04A4  1D03               	btfss	3,2
  5818     04A5  2CA7               	goto	u3311
  5819     04A6  2CA8               	goto	u3310
  5820     04A7                     u3311:
  5821     04A7  2CBB               	goto	l2717
  5822     04A8                     u3310:
  5823     04A8                     l2703:
  5824                           
  5825                           ;main.c: 490:                     {;main.c: 491:                         INTCONbits.INTE
      +                          =0;
  5826     04A8  120B               	bcf	11,4	;volatile
  5827                           
  5828                           ;main.c: 492:                          TRISBbits.TRISB0 =0;
  5829     04A9  1683               	bsf	3,5	;RP0=1, select bank1
  5830     04AA  1303               	bcf	3,6	;RP1=0, select bank1
  5831     04AB  1006               	bcf	6,0	;volatile
  5832     04AC                     l2705:
  5833                           
  5834                           ;main.c: 493:                         cnt=0;
  5835     04AC  3000               	movlw	0
  5836     04AD  1283               	bcf	3,5	;RP0=0, select bank0
  5837     04AE  1303               	bcf	3,6	;RP1=0, select bank0
  5838     04AF  00E1               	movwf	_cnt+3
  5839     04B0  3000               	movlw	0
  5840     04B1  00E0               	movwf	_cnt+2
  5841     04B2  3000               	movlw	0
  5842     04B3  00DF               	movwf	_cnt+1
  5843     04B4  3000               	movlw	0
  5844     04B5  00DE               	movwf	_cnt
  5845     04B6                     l2707:
  5846                           
  5847                           ;main.c: 494:                         RE1=0;
  5848     04B6  1089               	bcf	9,1	;volatile
  5849     04B7                     l2709:
  5850                           
  5851                           ;main.c: 495:                         RE0=0;
  5852     04B7  1009               	bcf	9,0	;volatile
  5853     04B8                     l2711:
  5854                           
  5855                           ;main.c: 496:                         counter_mode1=0;
  5856     04B8  01EB               	clrf	_counter_mode1
  5857     04B9                     l2713:
  5858                           
  5859                           ;main.c: 497:                         counter_mode2=0;
  5860     04B9  01EA               	clrf	_counter_mode2
  5861     04BA  2CA0               	goto	l2699
  5862     04BB                     l2717:
  5863                           
  5864                           ;main.c: 503:                 num = set_cnt;
  5865     04BB  085D               	movf	_set_cnt+3,w
  5866     04BC  00D1               	movwf	main@num+3
  5867     04BD  085C               	movf	_set_cnt+2,w
  5868     04BE  00D0               	movwf	main@num+2
  5869     04BF  085B               	movf	_set_cnt+1,w
  5870     04C0  00CF               	movwf	main@num+1
  5871     04C1  085A               	movf	_set_cnt,w
  5872     04C2  00CE               	movwf	main@num
  5873     04C3                     l2719:
  5874                           
  5875                           ;main.c: 505:                 temp = num / 10000;
  5876     04C3  3000               	movlw	0
  5877     04C4  00A5               	movwf	___lldiv@divisor+3
  5878     04C5  3000               	movlw	0
  5879     04C6  00A4               	movwf	___lldiv@divisor+2
  5880     04C7  3027               	movlw	39
  5881     04C8  00A3               	movwf	___lldiv@divisor+1
  5882     04C9  3010               	movlw	16
  5883     04CA  00A2               	movwf	___lldiv@divisor
  5884     04CB  0851               	movf	main@num+3,w
  5885     04CC  00A9               	movwf	___lldiv@dividend+3
  5886     04CD  0850               	movf	main@num+2,w
  5887     04CE  00A8               	movwf	___lldiv@dividend+2
  5888     04CF  084F               	movf	main@num+1,w
  5889     04D0  00A7               	movwf	___lldiv@dividend+1
  5890     04D1  084E               	movf	main@num,w
  5891     04D2  00A6               	movwf	___lldiv@dividend
  5892     04D3  158A  22B1  118A   	fcall	___lldiv
  5893     04D6  1283               	bcf	3,5	;RP0=0, select bank0
  5894     04D7  1303               	bcf	3,6	;RP1=0, select bank0
  5895     04D8  0823               	movf	?___lldiv+1,w
  5896     04D9  00CC               	movwf	main@temp+1
  5897     04DA  0822               	movf	?___lldiv,w
  5898     04DB  00CB               	movwf	main@temp
  5899     04DC                     l2721:
  5900                           
  5901                           ;main.c: 506:                 num = num % 10000;
  5902     04DC  3000               	movlw	0
  5903     04DD  00A5               	movwf	___llmod@divisor+3
  5904     04DE  3000               	movlw	0
  5905     04DF  00A4               	movwf	___llmod@divisor+2
  5906     04E0  3027               	movlw	39
  5907     04E1  00A3               	movwf	___llmod@divisor+1
  5908     04E2  3010               	movlw	16
  5909     04E3  00A2               	movwf	___llmod@divisor
  5910     04E4  0851               	movf	main@num+3,w
  5911     04E5  00A9               	movwf	___llmod@dividend+3
  5912     04E6  0850               	movf	main@num+2,w
  5913     04E7  00A8               	movwf	___llmod@dividend+2
  5914     04E8  084F               	movf	main@num+1,w
  5915     04E9  00A7               	movwf	___llmod@dividend+1
  5916     04EA  084E               	movf	main@num,w
  5917     04EB  00A6               	movwf	___llmod@dividend
  5918     04EC  158A  21FD  118A   	fcall	___llmod
  5919     04EF  1283               	bcf	3,5	;RP0=0, select bank0
  5920     04F0  1303               	bcf	3,6	;RP1=0, select bank0
  5921     04F1  0825               	movf	?___llmod+3,w
  5922     04F2  00D1               	movwf	main@num+3
  5923     04F3  0824               	movf	?___llmod+2,w
  5924     04F4  00D0               	movwf	main@num+2
  5925     04F5  0823               	movf	?___llmod+1,w
  5926     04F6  00CF               	movwf	main@num+1
  5927     04F7  0822               	movf	?___llmod,w
  5928     04F8  00CE               	movwf	main@num
  5929     04F9                     l2723:
  5930                           
  5931                           ;main.c: 507:                 if(blink_seg_f==1&&seg_set==5)
  5932     04F9  0368               	decf	_blink_seg_f,w
  5933     04FA  1D03               	btfss	3,2
  5934     04FB  2CFD               	goto	u3321
  5935     04FC  2CFE               	goto	u3320
  5936     04FD                     u3321:
  5937     04FD  2D07               	goto	l2729
  5938     04FE                     u3320:
  5939     04FE                     l2725:
  5940     04FE  3005               	movlw	5
  5941     04FF  0662               	xorwf	_seg_set,w
  5942     0500  0463               	iorwf	_seg_set+1,w
  5943     0501  1D03               	btfss	3,2
  5944     0502  2D04               	goto	u3331
  5945     0503  2D05               	goto	u3330
  5946     0504                     u3331:
  5947     0504  2D07               	goto	l2729
  5948     0505                     u3330:
  5949     0505                     l2727:
  5950                           
  5951                           ;main.c: 508:                     PORTB = 0;
  5952     0505  0186               	clrf	6	;volatile
  5953     0506  2D09               	goto	l2731
  5954     0507                     l2729:
  5955                           
  5956                           ;main.c: 510:                     PORTB = 0x02;
  5957     0507  3002               	movlw	2
  5958     0508  0086               	movwf	6	;volatile
  5959     0509                     l2731:
  5960                           
  5961                           ;main.c: 511:                 PORTD = seg_code[temp];
  5962     0509  084B               	movf	main@temp,w
  5963     050A  3E41               	addlw	(low (main@seg_code| 0))& (0+255)
  5964     050B  0084               	movwf	4
  5965     050C  1383               	bcf	3,7	;select IRP bank0
  5966     050D  0800               	movf	0,w
  5967     050E  0088               	movwf	8	;volatile
  5968     050F                     l2733:
  5969                           
  5970                           ;main.c: 512:                 DELAY_ms1(1);
  5971     050F  3001               	movlw	1
  5972     0510  00A2               	movwf	DELAY_ms1@ms_Count
  5973     0511  3000               	movlw	0
  5974     0512  00A3               	movwf	DELAY_ms1@ms_Count+1
  5975     0513  118A  27CE  118A   	fcall	_DELAY_ms1
  5976     0516                     l2735:
  5977                           
  5978                           ;main.c: 514:                 temp = num / 1000;
  5979     0516  3000               	movlw	0
  5980     0517  1283               	bcf	3,5	;RP0=0, select bank0
  5981     0518  1303               	bcf	3,6	;RP1=0, select bank0
  5982     0519  00A5               	movwf	___lldiv@divisor+3
  5983     051A  3000               	movlw	0
  5984     051B  00A4               	movwf	___lldiv@divisor+2
  5985     051C  3003               	movlw	3
  5986     051D  00A3               	movwf	___lldiv@divisor+1
  5987     051E  30E8               	movlw	232
  5988     051F  00A2               	movwf	___lldiv@divisor
  5989     0520  0851               	movf	main@num+3,w
  5990     0521  00A9               	movwf	___lldiv@dividend+3
  5991     0522  0850               	movf	main@num+2,w
  5992     0523  00A8               	movwf	___lldiv@dividend+2
  5993     0524  084F               	movf	main@num+1,w
  5994     0525  00A7               	movwf	___lldiv@dividend+1
  5995     0526  084E               	movf	main@num,w
  5996     0527  00A6               	movwf	___lldiv@dividend
  5997     0528  158A  22B1  118A   	fcall	___lldiv
  5998     052B  1283               	bcf	3,5	;RP0=0, select bank0
  5999     052C  1303               	bcf	3,6	;RP1=0, select bank0
  6000     052D  0823               	movf	?___lldiv+1,w
  6001     052E  00CC               	movwf	main@temp+1
  6002     052F  0822               	movf	?___lldiv,w
  6003     0530  00CB               	movwf	main@temp
  6004     0531                     l2737:
  6005                           
  6006                           ;main.c: 515:                 num = num % 1000;
  6007     0531  3000               	movlw	0
  6008     0532  00A5               	movwf	___llmod@divisor+3
  6009     0533  3000               	movlw	0
  6010     0534  00A4               	movwf	___llmod@divisor+2
  6011     0535  3003               	movlw	3
  6012     0536  00A3               	movwf	___llmod@divisor+1
  6013     0537  30E8               	movlw	232
  6014     0538  00A2               	movwf	___llmod@divisor
  6015     0539  0851               	movf	main@num+3,w
  6016     053A  00A9               	movwf	___llmod@dividend+3
  6017     053B  0850               	movf	main@num+2,w
  6018     053C  00A8               	movwf	___llmod@dividend+2
  6019     053D  084F               	movf	main@num+1,w
  6020     053E  00A7               	movwf	___llmod@dividend+1
  6021     053F  084E               	movf	main@num,w
  6022     0540  00A6               	movwf	___llmod@dividend
  6023     0541  158A  21FD  118A   	fcall	___llmod
  6024     0544  1283               	bcf	3,5	;RP0=0, select bank0
  6025     0545  1303               	bcf	3,6	;RP1=0, select bank0
  6026     0546  0825               	movf	?___llmod+3,w
  6027     0547  00D1               	movwf	main@num+3
  6028     0548  0824               	movf	?___llmod+2,w
  6029     0549  00D0               	movwf	main@num+2
  6030     054A  0823               	movf	?___llmod+1,w
  6031     054B  00CF               	movwf	main@num+1
  6032     054C  0822               	movf	?___llmod,w
  6033     054D  00CE               	movwf	main@num
  6034     054E                     l2739:
  6035                           
  6036                           ;main.c: 516:                 if(blink_seg_f==1&&seg_set==4)
  6037     054E  0368               	decf	_blink_seg_f,w
  6038     054F  1D03               	btfss	3,2
  6039     0550  2D52               	goto	u3341
  6040     0551  2D53               	goto	u3340
  6041     0552                     u3341:
  6042     0552  2D5C               	goto	l2745
  6043     0553                     u3340:
  6044     0553                     l2741:
  6045     0553  3004               	movlw	4
  6046     0554  0662               	xorwf	_seg_set,w
  6047     0555  0463               	iorwf	_seg_set+1,w
  6048     0556  1D03               	btfss	3,2
  6049     0557  2D59               	goto	u3351
  6050     0558  2D5A               	goto	u3350
  6051     0559                     u3351:
  6052     0559  2D5C               	goto	l2745
  6053     055A                     u3350:
  6054     055A                     l2743:
  6055                           
  6056                           ;main.c: 517:                     PORTB = 0;
  6057     055A  0186               	clrf	6	;volatile
  6058     055B  2D5E               	goto	l2747
  6059     055C                     l2745:
  6060                           
  6061                           ;main.c: 519:                     PORTB = 0x04;
  6062     055C  3004               	movlw	4
  6063     055D  0086               	movwf	6	;volatile
  6064     055E                     l2747:
  6065                           
  6066                           ;main.c: 520:                 PORTD = seg_code[temp];
  6067     055E  084B               	movf	main@temp,w
  6068     055F  3E41               	addlw	(low (main@seg_code| 0))& (0+255)
  6069     0560  0084               	movwf	4
  6070     0561  1383               	bcf	3,7	;select IRP bank0
  6071     0562  0800               	movf	0,w
  6072     0563  0088               	movwf	8	;volatile
  6073     0564                     l2749:
  6074                           
  6075                           ;main.c: 521:                 DELAY_ms1(1);
  6076     0564  3001               	movlw	1
  6077     0565  00A2               	movwf	DELAY_ms1@ms_Count
  6078     0566  3000               	movlw	0
  6079     0567  00A3               	movwf	DELAY_ms1@ms_Count+1
  6080     0568  118A  27CE  118A   	fcall	_DELAY_ms1
  6081     056B                     l2751:
  6082                           
  6083                           ;main.c: 523:                 temp = num / 100;
  6084     056B  3000               	movlw	0
  6085     056C  1283               	bcf	3,5	;RP0=0, select bank0
  6086     056D  1303               	bcf	3,6	;RP1=0, select bank0
  6087     056E  00A5               	movwf	___lldiv@divisor+3
  6088     056F  3000               	movlw	0
  6089     0570  00A4               	movwf	___lldiv@divisor+2
  6090     0571  3000               	movlw	0
  6091     0572  00A3               	movwf	___lldiv@divisor+1
  6092     0573  3064               	movlw	100
  6093     0574  00A2               	movwf	___lldiv@divisor
  6094     0575  0851               	movf	main@num+3,w
  6095     0576  00A9               	movwf	___lldiv@dividend+3
  6096     0577  0850               	movf	main@num+2,w
  6097     0578  00A8               	movwf	___lldiv@dividend+2
  6098     0579  084F               	movf	main@num+1,w
  6099     057A  00A7               	movwf	___lldiv@dividend+1
  6100     057B  084E               	movf	main@num,w
  6101     057C  00A6               	movwf	___lldiv@dividend
  6102     057D  158A  22B1  118A   	fcall	___lldiv
  6103     0580  1283               	bcf	3,5	;RP0=0, select bank0
  6104     0581  1303               	bcf	3,6	;RP1=0, select bank0
  6105     0582  0823               	movf	?___lldiv+1,w
  6106     0583  00CC               	movwf	main@temp+1
  6107     0584  0822               	movf	?___lldiv,w
  6108     0585  00CB               	movwf	main@temp
  6109     0586                     l2753:
  6110                           
  6111                           ;main.c: 524:                 num = num % 100;
  6112     0586  3000               	movlw	0
  6113     0587  00A5               	movwf	___llmod@divisor+3
  6114     0588  3000               	movlw	0
  6115     0589  00A4               	movwf	___llmod@divisor+2
  6116     058A  3000               	movlw	0
  6117     058B  00A3               	movwf	___llmod@divisor+1
  6118     058C  3064               	movlw	100
  6119     058D  00A2               	movwf	___llmod@divisor
  6120     058E  0851               	movf	main@num+3,w
  6121     058F  00A9               	movwf	___llmod@dividend+3
  6122     0590  0850               	movf	main@num+2,w
  6123     0591  00A8               	movwf	___llmod@dividend+2
  6124     0592  084F               	movf	main@num+1,w
  6125     0593  00A7               	movwf	___llmod@dividend+1
  6126     0594  084E               	movf	main@num,w
  6127     0595  00A6               	movwf	___llmod@dividend
  6128     0596  158A  21FD  118A   	fcall	___llmod
  6129     0599  1283               	bcf	3,5	;RP0=0, select bank0
  6130     059A  1303               	bcf	3,6	;RP1=0, select bank0
  6131     059B  0825               	movf	?___llmod+3,w
  6132     059C  00D1               	movwf	main@num+3
  6133     059D  0824               	movf	?___llmod+2,w
  6134     059E  00D0               	movwf	main@num+2
  6135     059F  0823               	movf	?___llmod+1,w
  6136     05A0  00CF               	movwf	main@num+1
  6137     05A1  0822               	movf	?___llmod,w
  6138     05A2  00CE               	movwf	main@num
  6139     05A3                     l2755:
  6140                           
  6141                           ;main.c: 525:                 if(blink_seg_f==1&&seg_set==3)
  6142     05A3  0368               	decf	_blink_seg_f,w
  6143     05A4  1D03               	btfss	3,2
  6144     05A5  2DA7               	goto	u3361
  6145     05A6  2DA8               	goto	u3360
  6146     05A7                     u3361:
  6147     05A7  2DB1               	goto	l2761
  6148     05A8                     u3360:
  6149     05A8                     l2757:
  6150     05A8  3003               	movlw	3
  6151     05A9  0662               	xorwf	_seg_set,w
  6152     05AA  0463               	iorwf	_seg_set+1,w
  6153     05AB  1D03               	btfss	3,2
  6154     05AC  2DAE               	goto	u3371
  6155     05AD  2DAF               	goto	u3370
  6156     05AE                     u3371:
  6157     05AE  2DB1               	goto	l2761
  6158     05AF                     u3370:
  6159     05AF                     l2759:
  6160                           
  6161                           ;main.c: 526:                     PORTB = 0;
  6162     05AF  0186               	clrf	6	;volatile
  6163     05B0  2DB3               	goto	l2763
  6164     05B1                     l2761:
  6165                           
  6166                           ;main.c: 528:                     PORTB = 0x08;
  6167     05B1  3008               	movlw	8
  6168     05B2  0086               	movwf	6	;volatile
  6169     05B3                     l2763:
  6170                           
  6171                           ;main.c: 529:                 PORTD = seg_code[temp];
  6172     05B3  084B               	movf	main@temp,w
  6173     05B4  3E41               	addlw	(low (main@seg_code| 0))& (0+255)
  6174     05B5  0084               	movwf	4
  6175     05B6  1383               	bcf	3,7	;select IRP bank0
  6176     05B7  0800               	movf	0,w
  6177     05B8  0088               	movwf	8	;volatile
  6178     05B9                     l2765:
  6179                           
  6180                           ;main.c: 530:                 DELAY_ms1(1);
  6181     05B9  3001               	movlw	1
  6182     05BA  00A2               	movwf	DELAY_ms1@ms_Count
  6183     05BB  3000               	movlw	0
  6184     05BC  00A3               	movwf	DELAY_ms1@ms_Count+1
  6185     05BD  118A  27CE  118A   	fcall	_DELAY_ms1
  6186     05C0                     l2767:
  6187                           
  6188                           ;main.c: 532:                 temp = num / 10;
  6189     05C0  3000               	movlw	0
  6190     05C1  1283               	bcf	3,5	;RP0=0, select bank0
  6191     05C2  1303               	bcf	3,6	;RP1=0, select bank0
  6192     05C3  00A5               	movwf	___lldiv@divisor+3
  6193     05C4  3000               	movlw	0
  6194     05C5  00A4               	movwf	___lldiv@divisor+2
  6195     05C6  3000               	movlw	0
  6196     05C7  00A3               	movwf	___lldiv@divisor+1
  6197     05C8  300A               	movlw	10
  6198     05C9  00A2               	movwf	___lldiv@divisor
  6199     05CA  0851               	movf	main@num+3,w
  6200     05CB  00A9               	movwf	___lldiv@dividend+3
  6201     05CC  0850               	movf	main@num+2,w
  6202     05CD  00A8               	movwf	___lldiv@dividend+2
  6203     05CE  084F               	movf	main@num+1,w
  6204     05CF  00A7               	movwf	___lldiv@dividend+1
  6205     05D0  084E               	movf	main@num,w
  6206     05D1  00A6               	movwf	___lldiv@dividend
  6207     05D2  158A  22B1  118A   	fcall	___lldiv
  6208     05D5  1283               	bcf	3,5	;RP0=0, select bank0
  6209     05D6  1303               	bcf	3,6	;RP1=0, select bank0
  6210     05D7  0823               	movf	?___lldiv+1,w
  6211     05D8  00CC               	movwf	main@temp+1
  6212     05D9  0822               	movf	?___lldiv,w
  6213     05DA  00CB               	movwf	main@temp
  6214     05DB                     l2769:
  6215                           
  6216                           ;main.c: 533:                 if(blink_seg_f==1&&seg_set==2)
  6217     05DB  0368               	decf	_blink_seg_f,w
  6218     05DC  1D03               	btfss	3,2
  6219     05DD  2DDF               	goto	u3381
  6220     05DE  2DE0               	goto	u3380
  6221     05DF                     u3381:
  6222     05DF  2DE9               	goto	l2775
  6223     05E0                     u3380:
  6224     05E0                     l2771:
  6225     05E0  3002               	movlw	2
  6226     05E1  0662               	xorwf	_seg_set,w
  6227     05E2  0463               	iorwf	_seg_set+1,w
  6228     05E3  1D03               	btfss	3,2
  6229     05E4  2DE6               	goto	u3391
  6230     05E5  2DE7               	goto	u3390
  6231     05E6                     u3391:
  6232     05E6  2DE9               	goto	l2775
  6233     05E7                     u3390:
  6234     05E7                     l2773:
  6235                           
  6236                           ;main.c: 534:                     PORTB = 0;
  6237     05E7  0186               	clrf	6	;volatile
  6238     05E8  2DEB               	goto	l2777
  6239     05E9                     l2775:
  6240                           
  6241                           ;main.c: 536:                     PORTB = 0x10;
  6242     05E9  3010               	movlw	16
  6243     05EA  0086               	movwf	6	;volatile
  6244     05EB                     l2777:
  6245                           
  6246                           ;main.c: 537:                 PORTD = seg_code[temp];
  6247     05EB  084B               	movf	main@temp,w
  6248     05EC  3E41               	addlw	(low (main@seg_code| 0))& (0+255)
  6249     05ED  0084               	movwf	4
  6250     05EE  1383               	bcf	3,7	;select IRP bank0
  6251     05EF  0800               	movf	0,w
  6252     05F0  0088               	movwf	8	;volatile
  6253     05F1                     l2779:
  6254                           
  6255                           ;main.c: 538:                 DELAY_ms1(1);
  6256     05F1  3001               	movlw	1
  6257     05F2  00A2               	movwf	DELAY_ms1@ms_Count
  6258     05F3  3000               	movlw	0
  6259     05F4  00A3               	movwf	DELAY_ms1@ms_Count+1
  6260     05F5  118A  27CE  118A   	fcall	_DELAY_ms1
  6261     05F8                     l2781:
  6262                           
  6263                           ;main.c: 540:                 temp = num % 10;
  6264     05F8  3000               	movlw	0
  6265     05F9  1283               	bcf	3,5	;RP0=0, select bank0
  6266     05FA  1303               	bcf	3,6	;RP1=0, select bank0
  6267     05FB  00A5               	movwf	___llmod@divisor+3
  6268     05FC  3000               	movlw	0
  6269     05FD  00A4               	movwf	___llmod@divisor+2
  6270     05FE  3000               	movlw	0
  6271     05FF  00A3               	movwf	___llmod@divisor+1
  6272     0600  300A               	movlw	10
  6273     0601  00A2               	movwf	___llmod@divisor
  6274     0602  0851               	movf	main@num+3,w
  6275     0603  00A9               	movwf	___llmod@dividend+3
  6276     0604  0850               	movf	main@num+2,w
  6277     0605  00A8               	movwf	___llmod@dividend+2
  6278     0606  084F               	movf	main@num+1,w
  6279     0607  00A7               	movwf	___llmod@dividend+1
  6280     0608  084E               	movf	main@num,w
  6281     0609  00A6               	movwf	___llmod@dividend
  6282     060A  158A  21FD  118A   	fcall	___llmod
  6283     060D  1283               	bcf	3,5	;RP0=0, select bank0
  6284     060E  1303               	bcf	3,6	;RP1=0, select bank0
  6285     060F  0823               	movf	?___llmod+1,w
  6286     0610  00CC               	movwf	main@temp+1
  6287     0611  0822               	movf	?___llmod,w
  6288     0612  00CB               	movwf	main@temp
  6289     0613                     l2783:
  6290                           
  6291                           ;main.c: 541:                 if(blink_seg_f==1 &&seg_set==1)
  6292     0613  0368               	decf	_blink_seg_f,w
  6293     0614  1D03               	btfss	3,2
  6294     0615  2E17               	goto	u3401
  6295     0616  2E18               	goto	u3400
  6296     0617                     u3401:
  6297     0617  2E20               	goto	l2789
  6298     0618                     u3400:
  6299     0618                     l2785:
  6300     0618  0362               	decf	_seg_set,w
  6301     0619  0463               	iorwf	_seg_set+1,w
  6302     061A  1D03               	btfss	3,2
  6303     061B  2E1D               	goto	u3411
  6304     061C  2E1E               	goto	u3410
  6305     061D                     u3411:
  6306     061D  2E20               	goto	l2789
  6307     061E                     u3410:
  6308     061E                     l2787:
  6309                           
  6310                           ;main.c: 542:                     PORTB = 0;
  6311     061E  0186               	clrf	6	;volatile
  6312     061F  2E22               	goto	l2791
  6313     0620                     l2789:
  6314                           
  6315                           ;main.c: 544:                     PORTB = 0x20;
  6316     0620  3020               	movlw	32
  6317     0621  0086               	movwf	6	;volatile
  6318     0622                     l2791:
  6319                           
  6320                           ;main.c: 546:                 PORTD = seg_code[temp];
  6321     0622  084B               	movf	main@temp,w
  6322     0623  3E41               	addlw	(low (main@seg_code| 0))& (0+255)
  6323     0624  0084               	movwf	4
  6324     0625  1383               	bcf	3,7	;select IRP bank0
  6325     0626  0800               	movf	0,w
  6326     0627  0088               	movwf	8	;volatile
  6327     0628                     l2793:
  6328                           
  6329                           ;main.c: 547:                 DELAY_ms1(1);
  6330     0628  3001               	movlw	1
  6331     0629  00A2               	movwf	DELAY_ms1@ms_Count
  6332     062A  3000               	movlw	0
  6333     062B  00A3               	movwf	DELAY_ms1@ms_Count+1
  6334     062C  118A  27CE  118A   	fcall	_DELAY_ms1
  6335     062F                     l2795:
  6336                           
  6337                           ;main.c: 549:                 if(key=='3')
  6338     062F  3033               	movlw	51
  6339     0630  1283               	bcf	3,5	;RP0=0, select bank0
  6340     0631  1303               	bcf	3,6	;RP1=0, select bank0
  6341     0632  064D               	xorwf	main@key,w
  6342     0633  1D03               	btfss	3,2
  6343     0634  2E36               	goto	u3421
  6344     0635  2E37               	goto	u3420
  6345     0636                     u3421:
  6346     0636  29D3               	goto	l2589
  6347     0637                     u3420:
  6348     0637                     l2797:
  6349                           
  6350                           ;main.c: 550:                 {;main.c: 551:                     INTCONbits.INTE=0;
  6351     0637  120B               	bcf	11,4	;volatile
  6352     0638                     l2799:
  6353                           
  6354                           ;main.c: 552:                     cnt=0;
  6355     0638  3000               	movlw	0
  6356     0639  00E1               	movwf	_cnt+3
  6357     063A  3000               	movlw	0
  6358     063B  00E0               	movwf	_cnt+2
  6359     063C  3000               	movlw	0
  6360     063D  00DF               	movwf	_cnt+1
  6361     063E  3000               	movlw	0
  6362     063F  00DE               	movwf	_cnt
  6363     0640                     l2801:
  6364                           
  6365                           ;main.c: 553:                     GPIO_PinWrite(RE0,0x01u);
  6366     0640  01A2               	clrf	GPIO_PinWrite@var_pinValue_u8
  6367     0641  0AA2               	incf	GPIO_PinWrite@var_pinValue_u8,f
  6368     0642  3000               	movlw	0
  6369     0643  1809               	btfsc	9,0	;volatile
  6370     0644  3001               	movlw	1
  6371     0645  158A  2396  118A   	fcall	_GPIO_PinWrite
  6372     0648                     l2803:
  6373                           
  6374                           ;main.c: 554:                     GPIO_PinWrite(RE1,0x01u);
  6375     0648  1283               	bcf	3,5	;RP0=0, select bank0
  6376     0649  1303               	bcf	3,6	;RP1=0, select bank0
  6377     064A  01A2               	clrf	GPIO_PinWrite@var_pinValue_u8
  6378     064B  0AA2               	incf	GPIO_PinWrite@var_pinValue_u8,f
  6379     064C  3000               	movlw	0
  6380     064D  1889               	btfsc	9,1	;volatile
  6381     064E  3001               	movlw	1
  6382     064F  158A  2396  118A   	fcall	_GPIO_PinWrite
  6383     0652                     l2805:
  6384                           
  6385                           ;main.c: 555:                     counter_mode1=0;
  6386     0652  1283               	bcf	3,5	;RP0=0, select bank0
  6387     0653  1303               	bcf	3,6	;RP1=0, select bank0
  6388     0654  01EB               	clrf	_counter_mode1
  6389     0655                     l2807:
  6390                           
  6391                           ;main.c: 556:                     counter_mode2=0;
  6392     0655  01EA               	clrf	_counter_mode2
  6393                           
  6394                           ;main.c: 557:                     break;
  6395     0656  29D1               	goto	u2891
  6396     0657  118A  280D         	ljmp	start
  6397     0659                     __end_of_main:

Data Sizes:
    Strings     0
    Constant    16
    Data        10
    BSS         28
    Persistent  0
    Stack       0

Auto Spaces:
    Space          Size  Autos    Used
    COMMON            0      0       0
    BANK0            94     50      88
    BANK1            94      0       0

Pointer List with Targets:

    None.

Critical Paths under _main in COMMON

    None.

Critical Paths under _myIsr in COMMON

    None.

Critical Paths under _main in BANK0

    _main->_UART_Init
    _UART_Init->_UART_SetBaudRate
    _UART_SetBaudRate->___lldiv
    _KEYPAD_Init->_GPIO_PinDirection
    _KEYPAD_GetKey->_GPIO_PinRead
    _KEYPAD_GetKey->_GPIO_PinWrite

Critical Paths under _myIsr in BANK0

    None.

Critical Paths under _main in BANK1

    None.

Critical Paths under _myIsr in BANK1

    None.

Call Graph Tables:

 ---------------------------------------------------------------------------------
 (Depth) Function   	        Calls       Base Space   Used Autos Params    Refs
 ---------------------------------------------------------------------------------
 (0) _main                                                26    26      0   17097
                                             29 BANK0     21    21      0
                          _DELAY_ms1
                      _GPIO_PinWrite
                      _KEYPAD_GetKey
                        _KEYPAD_Init
                          _UART_Init
                        _UART_TxChar
                            ___lldiv
                            ___llmod
 ---------------------------------------------------------------------------------
 (1) ___llmod                                             10     2      8    2591
                                              2 BANK0     10     2      8
 ---------------------------------------------------------------------------------
 (1) _UART_TxChar                                          1     1      0      22
                                              2 BANK0      1     1      0
 ---------------------------------------------------------------------------------
 (1) _UART_Init                                            4     0      4    3314
                                             25 BANK0      4     0      4
                   _UART_SetBaudRate
 ---------------------------------------------------------------------------------
 (2) _UART_SetBaudRate                                     9     5      4    3216
                                             16 BANK0      9     5      4
                            ___lldiv
 ---------------------------------------------------------------------------------
 (1) ___lldiv                                             14     6      8    3050
                                              2 BANK0     14     6      8
 ---------------------------------------------------------------------------------
 (1) _KEYPAD_Init                                         10     3      7    1394
                                              7 BANK0     10     3      7
                  _GPIO_PinDirection
 ---------------------------------------------------------------------------------
 (2) _GPIO_PinDirection                                    5     4      1     550
                                              2 BANK0      5     4      1
 ---------------------------------------------------------------------------------
 (1) _KEYPAD_GetKey                                        5     5      0    1628
                                              7 BANK0      5     5      0
                       _GPIO_PinRead
                      _GPIO_PinWrite
 ---------------------------------------------------------------------------------
 (2) _GPIO_PinWrite                                        5     4      1    1082
                                              2 BANK0      5     4      1
 ---------------------------------------------------------------------------------
 (2) _GPIO_PinRead                                         5     5      0     206
                                              2 BANK0      5     5      0
 ---------------------------------------------------------------------------------
 (1) _DELAY_ms1                                            6     4      2    1688
                                              2 BANK0      6     4      2
 ---------------------------------------------------------------------------------
 Estimated maximum stack depth 2
 ---------------------------------------------------------------------------------
 (Depth) Function   	        Calls       Base Space   Used Autos Params    Refs
 ---------------------------------------------------------------------------------
 (4) _myIsr                                                2     2      0       0
                                              0 BANK0      2     2      0
 ---------------------------------------------------------------------------------
 Estimated maximum stack depth 4
 ---------------------------------------------------------------------------------

 Call Graph Graphs:

 _main (ROOT)
   _DELAY_ms1
   _GPIO_PinWrite
   _KEYPAD_GetKey
     _GPIO_PinRead
     _GPIO_PinWrite
   _KEYPAD_Init
     _GPIO_PinDirection
   _UART_Init
     _UART_SetBaudRate
       ___lldiv
   _UART_TxChar
   ___lldiv
   ___llmod

 _myIsr (ROOT)

 Address spaces:
Name               Size   Autos  Total    Cost      Usage
SFR3                 0      0       0       4        0.0%
BITSFR3              0      0       0       4        0.0%
SFR2                 0      0       0       5        0.0%
BITSFR2              0      0       0       5        0.0%
BANK1               5E      0       0       6        0.0%
BITBANK1            5E      0       0       5        0.0%
SFR1                 0      0       0       2        0.0%
BITSFR1              0      0       0       2        0.0%
BANK0               5E     32      58       4       93.6%
BITBANK0            5E      0       0       3        0.0%
SFR0                 0      0       0       1        0.0%
BITSFR0              0      0       0       1        0.0%
COMMON               0      0       0       1        0.0%
BITCOMMON            0      0       0       0        0.0%
CODE                 0      0       0       0        0.0%
DATA                 0      0      58       8        0.0%
ABS                  0      0      58       7        0.0%
NULL                 0      0       0       0        0.0%
STACK                0      0       0       2        0.0%
EEDATA              80      0       0       0        0.0%


Microchip Technology PIC Macro Assembler V2.40 build 20220703182018 
Symbol Table                                                                                   Mon Sep 26 23:22:03 2022

                                 pc 0002                                  l64 07F4  
                                l59 07EA                                  fsr 0004  
                               l103 007B                                 l300 09AF  
                               l239 0741                                 l360 096E  
                               l339 0B95                                 l364 0AAC  
                               l269 0C6A                                 l525 0B18  
                               l365 0AB0                                 l374 07F8  
                               l279 07CD                                 l711 0A52  
                               l376 07FC                                 l377 07FF  
                               _RE0 0048                                 _RE1 0049  
                               _cnt 005E                                 fsr0 0004  
                               indf 0000                        ?_KEYPAD_Init 0027  
                              l2101 067F                                l2111 06BB  
                              l2103 0690                                l2031 0AC6  
                              l2121 0702                                l2113 06CB  
                              l2105 0695                                l2041 0B00  
                              l2033 0AD3                                l2051 0B99  
                              l2123 0707                                l2115 06DC  
                              l2107 06A5                                l2203 0999  
                              l2043 0B01                                l2035 0AD7  
                              l2027 0AB1                                l2211 0963  
                              l2141 0754                                l2061 0BC9  
                              l2053 0BA3                                l2221 0B27  
                              l2213 0B19                                l2125 0717  
                              l2117 06E1                                l2109 06B6  
                              l2205 09A3                                l2045 0B0A  
                              l2037 0AE0                                l2029 0AC3  
                              l2301 0C87                                l2143 0767  
                              l2135 0745                                l2071 0BFE  
                              l2063 0BCE                                l2055 0BA7  
                              l2231 0B34                                l2223 0B2D  
                              l3031 0730                                l2119 06F1  
                              l2207 09A9                                l2039 0AF2  
                              l2047 0B10                                l2311 0CB7  
                              l2303 0C89                                l2145 077A  
                              l2153 07B3                                l2137 0746  
                              l3033 0C59                                l2081 0C34  
                              l2073 0C0D                                l2065 0BDC  
                              l2057 0BAC                                l2241 0B4D  
                              l2233 0B3D                                l2225 0B33  
                              l2129 0728                                l2209 0959  
                              l2401 0E30                                l2321 0CBC  
                              l2313 0CB8                                l2305 0C8C  
                              l2171 07CE                                l3035 07BB  
                              l2147 078D                                l2155 07CC  
                              l2139 0750                                l2083 0C42  
                              l2075 0C12                                l2067 0BEB  
                              l2059 0BBA                                l2251 0B64  
                              l2243 0B52                                l2219 0B1D  
                              l2163 0A53                                l2411 0E48  
                              l2403 0E38                                l2331 0CC4  
                              l2323 0CBD                                l2315 0CB9  
                              l2307 0C8D                                l2181 07E4  
                              l2173 07D3                                l2149 07A0  
                              l2077 0C20                                l2069 0BF0  
                              l2261 0B93                                l2253 0B6E  
                              l2245 0B58                                l2093 065C  
                              l2165 0A67                                l2501 0FF7  
                              l2421 0E67                                l2405 0E3C  
                              l2413 0E4B                                l2341 0CDA  
                              l2333 0CC5                                l2325 0CBE  
                              l2317 0CBA                                l2309 0CB4  
                              l2079 0C2F                                l2087 0C51  
                              l2263 0B94                                l2255 0B74  
                              l2247 0B5E                                l2239 0B40  
                              l2095 0666                                l2191 0983  
                              l2183 0972                                l2167 0A7C  
                              l2271 09FD                                l2511 002F  
                              l2503 0FF8                                l2431 0E89  
                              l2423 0E71                                l2415 0E51  
                              l2407 0E46                                l2351 0CF3  
                              l2343 0CDB                                l2335 0CCA  
                              l2327 0CBF                                l2319 0CBB  
                              l2257 0B7A                                l2097 066A  
                              l2193 098C                                l2185 0982  
                              l2169 0AA8                                l2281 0A2D  
                              l2273 0A07                                l2601 01F1  
                              l2521 0048                                l2513 0030  
                              l2441 0EA2                                l2433 0E8A  
                              l2505 0FF9                                l2417 0E55  
                              l2409 0E47                                l2361 0D41  
                              l2345 0CE1                                l2353 0CFF  
                              l2337 0CCF                                l2425 0E79  
                              l2329 0CC0                                l2179 07D5  
                              l2259 0B80                                l2099 066F  
                              l2195 0992                                l2267 07F8  
                              l2283 0A3B                                l2275 0A0A  
                              l2611 0212                                l2603 01F7  
                              l2531 0077                                l2515 0036  
                              l2523 0054                                l2507 0024  
                              l2451 0EF0                                l2435 0E90  
                              l2443 0EAE                                l2427 0E7E  
                              l2419 0E5F                                l2371 0D88  
                              l2363 0D47                                l2355 0D09  
                              l2347 0CE7                                l2339 0CD4  
                              l2291 0C6B                                l2197 0998  
                              l2269 07FD                                l2285 0A44  
                              l2277 0A17                                l2701 04A2  
                              l2621 022C                                l2613 0218  
                              l2605 0203                                l2541 009C  
                              l2533 0078                                l2525 0068  
                              l2517 003C                                l2509 0029  
                              l2461 0F37                                l2453 0EF6  
                              l2445 0EB8                                l2437 0E96  
                              l2429 0E83                                l2381 0DCF  
                              l2373 0D8E                                l2365 0D4E  
                              l2357 0D22                                l2349 0CED  
                              l2293 0C82                                l2279 0A1B  
                              l2287 0A4A                                l2711 04B8  
                              l2703 04A8                                l2631 0264  
                              l2623 0232                                l2615 021E  
                              l2607 020B                                l2551 0100  
                              l2543 00BB                                l2535 0079  
                              l2527 006C                                l2519 0042  
                              l2471 0F7E                                l2463 0F3D  
                              l2455 0EFD                                l2447 0ED1  
                              l2439 0E9C                                l2391 0DFF  
                              l2383 0DD5                                l2375 0D95  
                              l2367 0D69                                l2359 0D3F  
                              l2295 0C82                                l2801 0640  
                              l2721 04DC                                l2713 04B9  
                              l2705 04AC                                l2641 02DB  
                              l2633 0277                                l2625 0238  
                              l2561 0156                                l2553 0102  
                              l2545 00C1                                l2537 007A  
                              l2529 0076                                l2481 0FAE  
                              l2473 0F84                                l2465 0F44  
                              l2457 0F18                                l2449 0EEE  
                              l2393 0E06                                l2385 0DDC  
                              l2377 0DB0                                l2369 0D86  
                              l2297 0C85                                l2803 0648  
                              l2731 0509                                l2723 04F9  
                              l2707 04B6                                l2651 0337  
                              l2643 02E4                                l2635 029B  
                              l2627 024B                                l2619 0226  
                              l2571 01A3                                l2563 0171  
                              l2555 0147                                l2547 00C8  
                              l2539 0083                                l2491 0FDF  
                              l2483 0FB5                                l2475 0F8B  
                              l2467 0F5F                                l2459 0F35  
                              l2395 0E21                                l2387 0DF7  
                              l2379 0DCD                                l2299 0C86  
                              l2805 0652                                l2741 0553  
                              l2733 050F                                l2725 04FE  
                              l2709 04B7                                l2661 038D  
                              l2645 02F7                                l2637 02A4  
                              l2629 025B                                l2653 035B  
                              l2717 04BB                                l2581 01CA  
                              l2573 01AA                                l2565 0173  
                              l2557 0149                                l2549 00E3  
                              l2493 0FE7                                l2485 0FD0  
                              l2477 0FA6                                l2469 0F7C  
                              l2397 0E23                                l2389 0DF9  
                              l2807 0655                                l2751 056B  
                              l2743 055A                                l2735 0516  
                              l2727 0505                                l2719 04C3  
                              l2671 03E3                                l2663 0394  
                              l2655 0363                                l2647 031B  
                              l2639 02B7                                l2591 01D8  
                              l2583 01CB                                l2575 01B2  
                              l2567 019B                                l2559 014F  
                              l2495 0FEB                                l2487 0FD2  
                              l2479 0FA8                                l2399 0E29  
                              l2761 05B1                                l2753 0586  
                              l2745 055C                                l2737 0531  
                              l2729 0507                                l2681 044F  
                              l2673 0407                                l2665 03A5  
                              l2657 0369                                l2649 0324  
                              l2593 01DE                                l2585 01CC  
                              l2577 01B7                                l2569 019D  
                              l2497 0FF5                                l2489 0FD8  
                              l2771 05E0                                l2763 05B3  
                              l2755 05A3                                l2747 055E  
                              l2739 054E                                l2691 049B  
                              l2683 0461                                l2675 0410  
                              l2667 03C9                                l2659 0371  
                              l2595 01DF                                l2579 01C9  
                              l2587 01CD                                l2499 0FF6  
                              l2781 05F8                                l2773 05E7  
                              l2765 05B9                                l2757 05A8  
                              l2749 0564                                l2693 049C  
                              l2677 0422                                l2669 03D2  
                              l2685 0485                                l2597 01E5  
                              l2589 01D3                                l2791 0622  
                              l2783 0613                                l2775 05E9  
                              l2767 05C0                                l2759 05AF  
                              l2695 049D                                l2687 048D  
                              l2679 0446                                l2599 01EB  
                              l2793 0628                                l2785 0618  
                              l2777 05EB                                l2769 05DB  
                              l2697 049F                                l2689 0491  
                              l2795 062F                                l2787 061E  
                              l2779 05F1                                l2699 04A0  
                              l2797 0637                                l2789 0620  
                              l2799 0638         __end_of_A_KeyLookUptable_U8 0816  
                              u2020 0BF0                                u2004 0BD4  
                              u2021 0BEF                                u2005 0BD2  
                              u2014 0BE2                                u2015 0BE0  
                              u2104 0C48                                u2120 066F  
                              u3000 0238                                u2105 0C46  
                              u2121 066E                                u3001 0237  
                              u2050 0C12                                u2034 0BF6  
                              u2210 06E1                                u3010 024B  
                              u2051 0C11                                u2035 0BF4  
                              u2211 06E0                                u2115 065F  
                              u3011 024A                                u2300 0765  
                              u2044 0C04                                u2204 06D1  
                              u3100 0308                                u3020 0264  
                              u2045 0C02                                u2205 06CF  
                              u3101 0309                                u3021 0263  
                              u3013 0247                                u2150 0695  
                              u2134 0675                                u3110 0324  
                              u3102 030E                                u3030 0277  
                              u2151 0694                                u2135 0673  
                              u3111 0323                                u3103 030F  
                              u3031 0276                                u2320 0777  
                              u2080 0C34                                u2064 0C18  
                              u2240 0707                                u2224 06E7  
                              u2144 0685                                u3200 03B6  
                              u3120 0337                                u3040 0288  
                              u2321 0775                                u2081 0C33  
                              u2065 0C16                                u2241 0706  
                              u2225 06E5                                u2145 0683  
                              u3201 03B7                                u3121 0336  
                              u3041 0289                                u3033 0273  
                              u2410 07B0                                u2330 0778  
                              u2314 076D                                u2074 0C26  
                              u2234 06F7                                u3210 03D2  
                              u3202 03BC                                u3130 0348  
                              u3050 02A4                                u3042 028E  
                              u2411 07AE                                u2315 076B  
                              u2075 0C24                                u2235 06F5  
                              u3211 03D1                                u3203 03BD  
                              u3131 0349                                u3123 0333  
                              u3051 02A3                                u3043 028F  
                              u2420 07B1                                u2404 07A6  
                              u2500 0B33                                u2180 06BB  
                              u2164 069B                                u3300 048D  
                              u3220 03E3                                u3140 0363  
                              u3132 034E                                u3060 02B7  
                              u2405 07A4                                u2501 0B32  
                              u2181 06BA                                u2165 0699  
                              u3301 048C                                u3221 03E2  
                              u3141 0362                                u3133 034F  
                              u3061 02B6                                u2350 078A  
                              u2094 0C3A                                u2510 0B4D  
                              u2254 070D                                u2174 06AB  
                              u2430 0A67                                u3310 04A8  
                              u3230 03F4                                u3150 0369  
                              u3070 02C8                                u2351 0788  
                              u2095 0C38                                u2511 0B4C  
                              u2255 070B                                u2175 06A9  
                              u2431 0A66                                u3311 04A7  
                              u3231 03F5                                u3223 03DF  
                              u3151 0368                                u3071 02C9  
                              u3063 02B3                                u2360 078B  
                              u2344 0780                                u2520 0B5E  
                              u2264 071D                                u2440 0A7C  
                              u2600 0A1B                                u3400 0618  
                              u3320 04FE                                u3240 0410  
                              u3232 03FA                                u3160 0371  
                              u3080 02E4                                u3072 02CE  
                              u2345 077E                                u2521 0B5D  
                              u2265 071B                                u2441 0A7B  
                              u2433 0A63                                u2601 0A1A  
                              u3401 0617                                u3321 04FD  
                              u3241 040F                                u3233 03FB  
                              u3161 0370                                u3081 02E3  
                              u3073 02CF                                u2290 0764  
                              u2530 0B63                                u2194 06C1  
                              u2450 0A8C                                u2610 0A2D  
                              u3410 061E                                u3330 0505  
                              u3250 0422                                u3170 038D  
                              u3090 02F7                                u2291 0762  
                              u2275 0749                                u2531 0B62  
                              u2195 06BF                                u2443 0A78  
                              u2611 0A2C                                u3411 061D  
                              u3331 0504                                u3251 0421  
                              u3091 02F6                                u2460 07E4  
                              u2380 079D                                u2284 075A  
                              u2540 0B7A                                u1900 0AD7  
                              u3420 0637                                u3340 0553  
                              u3260 0433                                u3180 0394  
                              u2700 0CED                                u2461 07E3  
                              u2381 079B                                u2285 0758  
                              u2541 0B79                                u1901 0AD6  
                              u3421 0636                                u3341 0552  
                              u3261 0434                                u3253 041E  
                              u3181 0393                                u3093 02F3  
                              u2701 0CEC                                u2470 07F4  
                              u2390 079E                                u2374 0793  
                              u2550 0B80                                u2630 0A4A  
                              u3350 055A                                u3270 044F  
                              u3262 0439                                u3190 03A5  
                              u2710 0CF3                                u2471 07F3  
                              u2375 0791                                u2551 0B7F  
                              u2455 0A87                                u2631 0A49  
                              u2615 0A29                                u3351 0559  
                              u3271 044E                                u3263 043A  
                              u3191 03A4                                u3175 0380  
                              u2711 0CF2                                u2480 0998  
                              u1920 0AF2                                u3360 05A8  
                              u3280 0461                                u3176 0381  
                              u2800 0FE7                                u2720 0E38  
                              u2640 0C75                                u2481 0997  
                              u1921 0AF1                                u2625 0A3C  
                              u3361 05A7                                u3281 0460  
                              u3193 03A1                                u3177 0386  
                              u2801 0FE6                                u2721 0E37  
                              u2490 09AF                                u2570 07FC  
                              u3370 05AF                                u3290 0472  
                              u3178 0387                                u2810 0024  
                              u2730 0E51                                u2650 0CCA  
                              u2475 07F0                                u2491 09AE  
                              u1915 0AD9                                u2571 07FB  
                              u3371 05AE                                u3291 0473  
                              u3283 045D                                u3179 038C  
                              u2811 0FFE                                u2731 0E50  
                              u2651 0CC9                                u1940 0B10  
                              u2580 0A07                                u3380 05E0  
                              u3292 0478                                u2900 01D8  
                              u2820 0029                                u2740 0E7E  
                              u2660 0CCF                                u2565 0B83  
                              u1941 0B0F                                u1925 0AEE  
                              u2581 0A06                                u3381 05DF  
                              u3293 0479                                u2901 01D7  
                              u2821 0028                                u2741 0E7D  
                              u2661 0CCE                                u3390 05E7  
                              u2910 01E5                                u2830 0036  
                              u2750 0E83                                u2670 0CD4  
                              u1935 0B02                                u3391 05E6  
                              u2911 01E4                                u2831 0035  
                              u2751 0E82                                u2671 0CD3  
                              u1960 0BAC                                u1880 0AC3  
                              u2920 01EB                                u2840 003C  
                              u2760 0E90                                u2680 0CE1  
                              u1961 0BAB                                u1881 0AC2  
                              u2921 01EA                                u2841 003B  
                              u2761 0E8F                                u2681 0CE0  
                              u2930 01F1                                u2850 0042  
                              u2770 0E96                                u2690 0CE7  
                              u1955 0B9C                                u2595 0A0C  
                              u2931 01F0                                u2851 0041  
                              u2771 0E95                                u2691 0CE6  
                              u2940 01F7                                u2860 0048  
                              u2780 0E9C                                u2941 01F6  
                              u2861 0047                                u2781 0E9B  
                              u1990 0BCE                                u1974 0BB2  
                              u2950 020B                                u2870 0068  
                              u2790 0EA2                                u1991 0BCD  
                              u1975 0BB0                                u1895 0AC8  
                              u2951 020A                                u2871 0067  
                              u2791 0EA1                                u1984 0BC0  
                              u2960 0211                                u2880 01B2  
                              u1985 0BBE                                u2961 0210  
                              u2881 01B1                                u2970 021E  
                              u2890 01D3                                u2971 021D  
                              u2891 01D1                                u2875 0064  
                              u2980 0225                                _RCIF 0065  
                              u2981 0224                                u2990 0232  
                              u2991 0231                                _TMR0 0001  
                              _TXIF 0064                                _main 0C6B  
                              btemp 007E                                start 000D  
                     ?_GPIO_PinRead 0020                       _KEYPAD_GetKey 0B19  
                     _GPIO_PinWrite 0B96                               ?_main 0020  
                   __end_of___lldiv 0B19                     __end_of___llmod 0A53  
                             i1l171 09F6                               _RCREG 001A  
                             _RCSTA 0018                               _SPBRG 0099  
                             _PORTA 0005                               _PORTB 0006  
                             _PORTC 0007                               _PORTD 0008  
                             _PORTE 0009                               _TRISA 0085  
                             _TRISB 0086                               _TRISC 0087  
                             _TRISD 0088                               _TRISE 0089  
                             _TXREG 0019                               _TXSTA 0098  
                      main@seg_code 0041                               _myIsr 09B0  
                             pclath 000A                               status 0003  
                 DELAY_ms1@ms_Count 0022                               wtemp0 007E  
                 __end_of_DELAY_ms1 07F5                      ??_GPIO_PinRead 0022  
                   __initialization 000F          GPIO_PinWrite@enm_pinNumber 0026  
                    ?_KEYPAD_GetKey 0020                        __end_of_main 0659  
                    ?_GPIO_PinWrite 0022                   _GPIO_PinDirection 0659  
                            ??_main 003D                  ?_GPIO_PinDirection 0022  
                     _counter_mode1 006B                       _counter_mode2 006A  
                            _ADCON1 009F                    ___llmod@dividend 0026  
                            ?_myIsr 0020                 ??_GPIO_PinDirection 0023  
                            i1l2811 09B4                              i1l2821 09DE  
                            i1l2813 09C2                              i1l2831 09F5  
                            i1l2823 09E6                              i1l2815 09C3  
                            i1l2825 09EF                              i1l2817 09C7  
                            i1l2809 09B0                              i1l2827 09F1  
                            i1l2819 09DC                              i1l2829 09F3  
                            u343_20 09B4                              u343_21 09B3  
                            u344_20 09C7                              u344_21 09C6  
                            u345_20 09DC                              u345_21 09DB  
                            u346_20 09E4                              u346_21 09E2  
                            u347_20 09E5                              u348_20 09EF  
                            u348_21 09EE                   ?_UART_SetBaudRate 0030  
                ??_UART_SetBaudRate 0034                        ?_UART_TxChar 0020  
         GPIO_PinRead@enm_pinNumber 0026                   __end_of_UART_Init 096F  
                         ??___lldiv 002A                           ??___llmod 002A  
         __end_of_GPIO_PinDirection 0742                        KEYPAD_Init@i 0030  
    GPIO_PinDirection@enm_pinNumber 0026                              saved_w 007E  
           __end_of__initialization 0021                     ??_KEYPAD_GetKey 0027  
                   ??_GPIO_PinWrite 0023                      __pcstackCOMMON 0000  
                      __pidataBANK0 093E                       __end_of_myIsr 09FD  
                    _OPTION_REGbits 0081                __end_of_GPIO_PinRead 07CE  
    GPIO_PinWrite@var_portNumber_u8 0025                             ??_myIsr 0020  
                        __pbssBANK0 0052        GPIO_PinWrite@var_pinValue_u8 0022  
                        __pmaintext 0C6B                          __pintentry 0004  
                        __stringtab 0800                          DELAY_ms1@i 0024  
                        DELAY_ms1@j 0026                    KEYPAD_Init@col_0 002A  
                  KEYPAD_Init@col_1 002B                    KEYPAD_Init@col_2 002C  
                  KEYPAD_Init@col_3 002D                    KEYPAD_Init@row_0 002F  
                  KEYPAD_Init@row_1 0027                    KEYPAD_Init@row_2 0028  
                  KEYPAD_Init@row_3 0029                           _DELAY_ms1 07CE  
                           ___lldiv 0AB1                             ___llmod 09FD  
                           __ptext1 09FD                             __ptext2 07F5  
                           __ptext3 0959                             __ptext4 0A53  
                           __ptext5 0AB1                             __ptext6 096F  
                           __ptext7 0659                             __ptext8 0B19  
                           __ptext9 0B96                             _seg_set 0062  
                           _set_cnt 005A        KEYPAD_GetKey@v_KeyPressed_u8 0029  
                           main@key 004D                             clrloop0 0937  
                           main@num 004E                end_of_initialization 0021  
                     _A_ColsPins_U8 0052                     ___lldiv@divisor 0022  
                   ___lldiv@counter 002F                          ?_DELAY_ms1 0022  
    UART_SetBaudRate@v_baudRate_u32 0030                          _timer0_cnt 0066  
                           psplit$0 B001B                           _UART_Init 0959  
                     _seg_blink_cnt 0064                           _TRISBbits 0086  
              pnum$maintext_split_1 001B  GPIO_PinDirection@var_portNumber_u8 0025  
                      _GPIO_PinRead 0742                          ?_UART_Init 0039  
               start_initialization 000F                       ??_KEYPAD_Init 002E  
                   ___llmod@divisor 0022       GPIO_PinRead@var_portNumber_u8 0024  
                   ___llmod@counter 002B     GPIO_PinDirection@var_pinDirn_u8 0022  
                       ??_DELAY_ms1 0000               __end_of_KEYPAD_GetKey 0B96  
                        init_fetch0 0948               __end_of_GPIO_PinWrite 0C6B  
                       __pdataBANK0 006E                 _A_KeyLookUptable_U8 0806  
                         ___latbits 0001                       __pcstackBANK0 0020  
               __end_of_KEYPAD_Init 09B0                            ?___lldiv 0022  
                          ?___llmod 0022                         ??_UART_Init 0000  
                  _UART_SetBaudRate 0A53                           _get_key_f 006C  
                         __pstrings 0800                         _blink_seg_f 0068  
                 interrupt_function 0004                           clear_ram0 0936  
                     ??_UART_TxChar 0000             UART_Init@v_baudRate_u32 0039  
          GPIO_PinRead@returnStatus 0025                         __stringbase 0805  
                     _A_RowsPins_U8 0056                         _KEYPAD_Init 096F  
                          _RegValue 006D            UART_TxChar@v_uartData_u8 0022  
                      pnum$maintext 000B                 __end_of_UART_TxChar 0800  
                __end_of__stringtab 0806                      KEYPAD_GetKey@i 002B  
                    KEYPAD_GetKey@j 002A                            __ptext10 0742  
                          __ptext11 07CE                            __ptext12 09B0  
                          main@F940 006E            UART_SetBaudRate@RegValue 0038  
                          main@temp 004B                          _INTCONbits 000B  
                          init_ram0 094C                            intlevel1 0000  
          __end_of_UART_SetBaudRate 0AB1                    ___lldiv@dividend 0026  
                         stringcode 0800                         _UART_TxChar 07F5  
                  ___lldiv@quotient 002B                            stringdir 0800  
                          stringtab 0800                         _setval_mode 0069  
